

Microchip MPLAB XC8 Assembler V2.40 build 20220703182018 
                                                                                               Thu Jan 12 06:54:52 2023

Microchip MPLAB XC8 C Compiler v2.40 (Free license) build 20220703182018 Og1 
     1                           	processor	18F4520
     2                           	fnconf	rparam,??,?,0
     3                           	pagewidth 120
     4                           	opt	flic
     5                           	psect	cinit,global,reloc=2,class=CODE,delta=1
     6                           	psect	bssCOMRAM,global,class=COMRAM,space=1,delta=1,lowdata,noexec
     7                           	psect	bssBANK0,global,class=BANK0,space=1,delta=1,lowdata,noexec
     8                           	psect	cstackCOMRAM,global,class=COMRAM,space=1,delta=1,lowdata,noexec
     9                           	psect	text0,global,reloc=2,class=CODE,delta=1
    10                           	psect	text1,global,reloc=2,class=CODE,delta=1
    11                           	psect	text2,global,reloc=2,class=CODE,delta=1
    12                           	psect	text3,global,reloc=2,class=CODE,delta=1
    13                           	psect	text4,global,reloc=2,class=CODE,delta=1,group=2
    14                           	psect	text5,global,reloc=2,class=CODE,delta=1,group=1
    15                           	psect	text6,global,reloc=2,class=CODE,delta=1
    16                           	psect	text7,global,reloc=2,class=CODE,delta=1
    17                           	psect	text8,global,reloc=2,class=CODE,delta=1
    18                           	psect	text9,global,reloc=2,class=CODE,delta=1
    19                           	psect	text10,global,reloc=2,class=CODE,delta=1
    20                           	psect	text11,global,reloc=2,class=CODE,delta=1
    21                           	psect	text12,global,reloc=2,class=CODE,delta=1,group=2
    22                           	psect	text13,global,reloc=2,class=CODE,delta=1,group=2
    23                           	psect	text14,global,reloc=2,class=CODE,delta=1
    24                           	psect	text15,global,reloc=2,class=CODE,delta=1
    25                           	psect	text16,global,reloc=2,class=CODE,delta=1
    26                           	psect	text17,global,reloc=2,class=CODE,delta=1
    27                           	psect	text18,global,reloc=2,class=CODE,delta=1,group=1
    28                           	psect	text19,global,reloc=2,class=CODE,delta=1,group=1
    29                           	psect	text20,global,reloc=2,class=CODE,delta=1
    30                           	psect	text21,global,reloc=2,class=CODE,delta=1,group=1
    31                           	psect	intcode,global,reloc=2,class=CODE,delta=1
    32                           	psect	intcode_body,global,reloc=2,class=CODE,delta=1
    33                           	psect	intsave_regs,global,class=BIGRAM,space=1,delta=1,noexec
    34                           	psect	rparam,global,class=COMRAM,space=1,delta=1,noexec
    35                           	psect	temp,global,ovrld,common,class=COMRAM,space=1,delta=1
    36                           	psect	idloc,global,abs,ovrld,class=IDLOC,space=5,delta=1,noexec
    37                           	psect	config,global,abs,ovrld,class=CONFIG,space=4,delta=1,noexec
    38   000000                     
    39                           ; Version 2.40
    40                           ; Generated 04/07/2022 GMT
    41                           ; 
    42                           ; Copyright © 2022, Microchip Technology Inc. and its subsidiaries ("Microchip")
    43                           ; All rights reserved.
    44                           ; 
    45                           ; This software is developed by Microchip Technology Inc. and its subsidiaries ("Microch
      +                          ip").
    46                           ; 
    47                           ; Redistribution and use in source and binary forms, with or without modification, are
    48                           ; permitted provided that the following conditions are met:
    49                           ; 
    50                           ;     1. Redistributions of source code must retain the above copyright notice, this lis
      +                          t of
    51                           ;        conditions and the following disclaimer.
    52                           ; 
    53                           ;     2. Redistributions in binary form must reproduce the above copyright notice, this 
      +                          list
    54                           ;        of conditions and the following disclaimer in the documentation and/or other
    55                           ;        materials provided with the distribution. Publication is not required when
    56                           ;        this file is used in an embedded application.
    57                           ; 
    58                           ;     3. Microchip's name may not be used to endorse or promote products derived from th
      +                          is
    59                           ;        software without specific prior written permission.
    60                           ; 
    61                           ; THIS SOFTWARE IS PROVIDED BY MICROCHIP "AS IS" AND ANY EXPRESS OR IMPLIED WARRANTIES,
    62                           ; INCLUDING, BUT NOT LIMITED TO, THE IMPLIED WARRANTIES OF MERCHANTABILITY AND FITNESS F
      +                          OR
    63                           ; PURPOSE ARE DISCLAIMED.  IN NO EVENT SHALL MICROCHIP BE LIABLE FOR ANY DIRECT, INDIREC
      +                          T,
    64                           ; INCIDENTAL, SPECIAL, EXEMPLARY, OR CONSEQUENTIAL DAMAGES (INCLUDING BUT NOT LIMITED TO
    65                           ; PROCUREMENT OF SUBSTITUTE GOODS OR SERVICES; LOSS OF USE, DATA OR PROFITS; OR BUSINESS
    66                           ; INTERRUPTION) HOWSOEVER CAUSED AND ON ANY THEORY OF LIABILITY, WHETHER IN CONTRACT, ST
      +                          RICT
    67                           ; LIABILITY, OR TORT (INCLUDING NEGLIGENCE OR OTHERWISE) ARISING IN ANY WAY OUT OF THE U
      +                          SE OF
    68                           ; THIS SOFTWARE, EVEN IF ADVISED OF THE POSSIBILITY OF SUCH DAMAGE.
    69                           ; 
    70                           ; 
    71                           ; Code-generator required, PIC18F4520 Definitions
    72                           ; 
    73                           ; SFR Addresses
    74   000000                     _ADRESL	set	4035
    75   000000                     _ADRESH	set	4036
    76   000000                     _LATBbits	set	3978
    77   000000                     _LATCbits	set	3979
    78   000000                     _ADCON0bits	set	4034
    79   000000                     _TRISCbits	set	3988
    80   000000                     _TRISAbits	set	3986
    81   000000                     _TRISEbits	set	3990
    82   000000                     _LATAbits	set	3977
    83   000000                     _TRISA	set	3986
    84   000000                     _PIR1bits	set	3998
    85   000000                     _PIE1bits	set	3997
    86   000000                     _ADCON2bits	set	4032
    87   000000                     _ADCON1	set	4033
    88   000000                     _OSCCONbits	set	4051
    89   000000                     _INTCONbits	set	4082
    90   000000                     _TRISE	set	3990
    91   000000                     _TRISD	set	3989
    92   000000                     _TRISC	set	3988
    93   000000                     _TRISB	set	3987
    94   000000                     _LATEbits	set	3981
    95   000000                     _LATDbits	set	3980
    96                           
    97                           ; #config settings
    98                           
    99                           	psect	cinit
   100   001FCA                     __pcinit:
   101                           	callstack 0
   102   001FCA                     start_initialization:
   103                           	callstack 0
   104   001FCA                     __initialization:
   105                           	callstack 0
   106                           
   107                           ; Clear objects allocated to BANK0 (50 bytes)
   108   001FCA  EE00  F080         	lfsr	0,__pbssBANK0
   109   001FCE  0E32               	movlw	50
   110   001FD0                     clear_0:
   111   001FD0  6AEE               	clrf	postinc0,c
   112   001FD2  06E8               	decf	wreg,f,c
   113   001FD4  E1FD               	bnz	clear_0
   114                           
   115                           ; Clear objects allocated to COMRAM (6 bytes)
   116   001FD6  6A59               	clrf	(__pbssCOMRAM+5)& (0+255),c
   117   001FD8  6A58               	clrf	(__pbssCOMRAM+4)& (0+255),c
   118   001FDA  6A57               	clrf	(__pbssCOMRAM+3)& (0+255),c
   119   001FDC  6A56               	clrf	(__pbssCOMRAM+2)& (0+255),c
   120   001FDE  6A55               	clrf	(__pbssCOMRAM+1)& (0+255),c
   121   001FE0  6A54               	clrf	__pbssCOMRAM& (0+255),c
   122   001FE2                     end_of_initialization:
   123                           	callstack 0
   124   001FE2                     __end_of__initialization:
   125                           	callstack 0
   126   001FE2  905A               	bcf	int$flags,0,c	;clear compiler interrupt flag (level 1)
   127   001FE4  925A               	bcf	int$flags,1,c	;clear compiler interrupt flag (level 2)
   128   001FE6  0E00               	movlw	low (__Lmediumconst shr (0+16))
   129   001FE8  6EF8               	movwf	tblptru,c
   130   001FEA  0100               	movlb	0
   131   001FEC  EF6D  F00D         	goto	_main	;jump to C main() function
   132                           
   133                           	psect	bssCOMRAM
   134   000054                     __pbssCOMRAM:
   135                           	callstack 0
   136   000054                     _mode:
   137                           	callstack 0
   138   000054                     	ds	2
   139   000056                     _seed:
   140                           	callstack 0
   141   000056                     	ds	4
   142                           
   143                           	psect	bssBANK0
   144   000080                     __pbssBANK0:
   145                           	callstack 0
   146   000080                     _plane:
   147                           	callstack 0
   148   000080                     	ds	50
   149                           
   150                           	psect	cstackCOMRAM
   151   000001                     __pcstackCOMRAM:
   152                           	callstack 0
   153   000001                     ??_H_ISR:
   154                           
   155                           ; 1 bytes @ 0x0
   156   000001                     	ds	2
   157   000003                     H_ISR@value:
   158                           	callstack 0
   159                           
   160                           ; 2 bytes @ 0x2
   161   000003                     	ds	2
   162   000005                     H_ISR@mapResult:
   163                           	callstack 0
   164                           
   165                           ; 1 bytes @ 0x4
   166   000005                     	ds	1
   167   000006                     ?___lmul:
   168                           	callstack 0
   169   000006                     ?_time:
   170                           	callstack 0
   171   000006                     plane_on@a:
   172                           	callstack 0
   173   000006                     time@t:
   174                           	callstack 0
   175   000006                     ___lmul@multiplier:
   176                           	callstack 0
   177                           
   178                           ; 4 bytes @ 0x5
   179   000006                     	ds	2
   180   000008                     ??_plane_on:
   181                           
   182                           ; 1 bytes @ 0x7
   183   000008                     	ds	2
   184   00000A                     ___lmul@multiplicand:
   185                           	callstack 0
   186                           
   187                           ; 4 bytes @ 0x9
   188   00000A                     	ds	4
   189   00000E                     srand@s:
   190                           	callstack 0
   191   00000E                     ___lmul@product:
   192                           	callstack 0
   193                           
   194                           ; 4 bytes @ 0xD
   195   00000E                     	ds	2
   196   000010                     ??_srand:
   197                           
   198                           ; 1 bytes @ 0xF
   199   000010                     	ds	2
   200   000012                     ?_rand:
   201                           	callstack 0
   202                           
   203                           ; 2 bytes @ 0x11
   204   000012                     	ds	2
   205   000014                     ??_rand:
   206                           
   207                           ; 1 bytes @ 0x13
   208   000014                     	ds	4
   209   000018                     ?___awmod:
   210                           	callstack 0
   211   000018                     ___awmod@dividend:
   212                           	callstack 0
   213                           
   214                           ; 2 bytes @ 0x17
   215   000018                     	ds	2
   216   00001A                     ___awmod@divisor:
   217                           	callstack 0
   218                           
   219                           ; 2 bytes @ 0x19
   220   00001A                     	ds	2
   221   00001C                     ___awmod@counter:
   222                           	callstack 0
   223                           
   224                           ; 1 bytes @ 0x1B
   225   00001C                     	ds	1
   226   00001D                     ___awmod@sign:
   227                           	callstack 0
   228                           
   229                           ; 1 bytes @ 0x1C
   230   00001D                     	ds	1
   231   00001E                     ?_move:
   232                           	callstack 0
   233   00001E                     ?___awdiv:
   234                           	callstack 0
   235   00001E                     move@x:
   236                           	callstack 0
   237   00001E                     ___awdiv@dividend:
   238                           	callstack 0
   239                           
   240                           ; 2 bytes @ 0x1D
   241   00001E                     	ds	2
   242   000020                     move@r:
   243                           	callstack 0
   244   000020                     ___awdiv@divisor:
   245                           	callstack 0
   246                           
   247                           ; 2 bytes @ 0x1F
   248   000020                     	ds	2
   249   000022                     ___awdiv@counter:
   250                           	callstack 0
   251                           
   252                           ; 1 bytes @ 0x21
   253   000022                     	ds	1
   254   000023                     ___awdiv@sign:
   255                           	callstack 0
   256                           
   257                           ; 1 bytes @ 0x22
   258   000023                     	ds	1
   259   000024                     ___awdiv@quotient:
   260                           	callstack 0
   261                           
   262                           ; 2 bytes @ 0x23
   263   000024                     	ds	2
   264   000026                     ?___wmul:
   265                           	callstack 0
   266   000026                     set_plane@a:
   267                           	callstack 0
   268   000026                     ___wmul@multiplier:
   269                           	callstack 0
   270                           
   271                           ; 2 bytes @ 0x25
   272   000026                     	ds	2
   273   000028                     ___wmul@multiplicand:
   274                           	callstack 0
   275                           
   276                           ; 2 bytes @ 0x27
   277   000028                     	ds	2
   278   00002A                     ___wmul@product:
   279                           	callstack 0
   280                           
   281                           ; 2 bytes @ 0x29
   282   00002A                     	ds	2
   283   00002C                     ??_clear_plane:
   284   00002C                     ??_clear_cube:
   285   00002C                     lighton@x:
   286                           	callstack 0
   287                           
   288                           ; 2 bytes @ 0x2B
   289   00002C                     	ds	2
   290   00002E                     clear_plane@i:
   291                           	callstack 0
   292   00002E                     clear_cube@i:
   293                           	callstack 0
   294   00002E                     lighton@prev:
   295                           	callstack 0
   296                           
   297                           ; 2 bytes @ 0x2D
   298   00002E                     	ds	2
   299   000030                     ??_lighton:
   300   000030                     clear_plane@j:
   301                           	callstack 0
   302   000030                     clear_cube@j:
   303                           	callstack 0
   304                           
   305                           ; 2 bytes @ 0x2F
   306   000030                     	ds	2
   307   000032                     random_pattern@id:
   308                           	callstack 0
   309   000032                     rainfall@id:
   310                           	callstack 0
   311   000032                     scan@id:
   312                           	callstack 0
   313   000032                     speedup@id:
   314                           	callstack 0
   315   000032                     cubeidle@id:
   316                           	callstack 0
   317   000032                     pulsing@id:
   318                           	callstack 0
   319                           
   320                           ; 2 bytes @ 0x31
   321   000032                     	ds	2
   322   000034                     ??_random_pattern:
   323   000034                     ??_rainfall:
   324   000034                     ??_scan:
   325   000034                     ??_speedup:
   326   000034                     ??_cubeidle:
   327   000034                     ??_pulsing:
   328                           
   329                           ; 1 bytes @ 0x33
   330   000034                     	ds	1
   331   000035                     rainfall@it:
   332                           	callstack 0
   333   000035                     speedup@j_748:
   334                           	callstack 0
   335                           
   336                           ; 2 bytes @ 0x34
   337   000035                     	ds	1
   338   000036                     pulsing@i_755:
   339                           	callstack 0
   340                           
   341                           ; 2 bytes @ 0x35
   342   000036                     	ds	1
   343   000037                     rainfall@itcnt:
   344                           	callstack 0
   345   000037                     speedup@dcnt:
   346                           	callstack 0
   347                           
   348                           ; 2 bytes @ 0x36
   349   000037                     	ds	1
   350   000038                     scan@i:
   351                           	callstack 0
   352   000038                     pulsing@j:
   353                           	callstack 0
   354                           
   355                           ; 2 bytes @ 0x37
   356   000038                     	ds	1
   357   000039                     rainfall@x:
   358                           	callstack 0
   359   000039                     speedup@del:
   360                           	callstack 0
   361                           
   362                           ; 2 bytes @ 0x38
   363   000039                     	ds	1
   364   00003A                     scan@j:
   365                           	callstack 0
   366   00003A                     pulsing@i:
   367                           	callstack 0
   368                           
   369                           ; 2 bytes @ 0x39
   370   00003A                     	ds	1
   371   00003B                     rainfall@cnt:
   372                           	callstack 0
   373   00003B                     speedup@i:
   374                           	callstack 0
   375                           
   376                           ; 2 bytes @ 0x3A
   377   00003B                     	ds	1
   378   00003C                     random_pattern@prevr:
   379                           	callstack 0
   380   00003C                     scan@i_730:
   381                           	callstack 0
   382   00003C                     cubeidle@i:
   383                           	callstack 0
   384   00003C                     pulsing@i_757:
   385                           	callstack 0
   386                           
   387                           ; 2 bytes @ 0x3B
   388   00003C                     	ds	1
   389   00003D                     speedup@j:
   390                           	callstack 0
   391                           
   392                           ; 2 bytes @ 0x3C
   393   00003D                     	ds	1
   394   00003E                     random_pattern@prevx:
   395                           	callstack 0
   396   00003E                     scan@i_731:
   397                           	callstack 0
   398                           
   399                           ; 2 bytes @ 0x3D
   400   00003E                     	ds	1
   401   00003F                     speedup@j_747:
   402                           	callstack 0
   403                           
   404                           ; 2 bytes @ 0x3E
   405   00003F                     	ds	1
   406   000040                     random_pattern@x:
   407                           	callstack 0
   408   000040                     scan@i_732:
   409                           	callstack 0
   410                           
   411                           ; 2 bytes @ 0x3F
   412   000040                     	ds	2
   413   000042                     random_pattern@r:
   414                           	callstack 0
   415   000042                     scan@i_733:
   416                           	callstack 0
   417                           
   418                           ; 2 bytes @ 0x41
   419   000042                     	ds	2
   420   000044                     scan@j_734:
   421                           	callstack 0
   422                           
   423                           ; 2 bytes @ 0x43
   424   000044                     	ds	2
   425   000046                     scan@i_735:
   426                           	callstack 0
   427                           
   428                           ; 2 bytes @ 0x45
   429   000046                     	ds	2
   430   000048                     scan@j_736:
   431                           	callstack 0
   432                           
   433                           ; 2 bytes @ 0x47
   434   000048                     	ds	2
   435   00004A                     scan@i_737:
   436                           	callstack 0
   437                           
   438                           ; 2 bytes @ 0x49
   439   00004A                     	ds	2
   440   00004C                     scan@j_738:
   441                           	callstack 0
   442                           
   443                           ; 2 bytes @ 0x4B
   444   00004C                     	ds	2
   445   00004E                     scan@i_739:
   446                           	callstack 0
   447                           
   448                           ; 2 bytes @ 0x4D
   449   00004E                     	ds	2
   450   000050                     scan@j_740:
   451                           	callstack 0
   452                           
   453                           ; 2 bytes @ 0x4F
   454   000050                     	ds	2
   455   000052                     ??_main:
   456                           
   457                           ; 1 bytes @ 0x51
   458   000052                     	ds	2
   459                           
   460 ;;
   461 ;;Main: autosize = 0, tempsize = 2, incstack = 0, save=0
   462 ;;
   463 ;; *************** function _main *****************
   464 ;; Defined at:
   465 ;;		line 574 in file "main.c"
   466 ;; Parameters:    Size  Location     Type
   467 ;;		None
   468 ;; Auto vars:     Size  Location     Type
   469 ;;		None
   470 ;; Return value:  Size  Location     Type
   471 ;;                  1    wreg      void 
   472 ;; Registers used:
   473 ;;		wreg, fsr2l, fsr2h, status,2, status,0, prodl, prodh, cstack
   474 ;; Tracked objects:
   475 ;;		On entry : 0/0
   476 ;;		On exit  : 0/0
   477 ;;		Unchanged: 0/0
   478 ;; Data sizes:     COMRAM   BANK0   BANK1   BANK2   BANK3   BANK4   BANK5
   479 ;;      Params:         0       0       0       0       0       0       0
   480 ;;      Locals:         0       0       0       0       0       0       0
   481 ;;      Temps:          2       0       0       0       0       0       0
   482 ;;      Totals:         2       0       0       0       0       0       0
   483 ;;Total ram usage:        2 bytes
   484 ;; Hardware stack levels required when called: 5
   485 ;; This function calls:
   486 ;;		_clear_cube
   487 ;;		_cubeidle
   488 ;;		_init
   489 ;;		_pulsing
   490 ;;		_rainfall
   491 ;;		_random_pattern
   492 ;;		_scan
   493 ;;		_speedup
   494 ;; This function is called by:
   495 ;;		Startup code after reset
   496 ;; This function uses a non-reentrant model
   497 ;;
   498                           
   499                           	psect	text0
   500   001ADA                     __ptext0:
   501                           	callstack 0
   502   001ADA                     _main:
   503                           	callstack 26
   504   001ADA                     
   505                           ;main.c: 575:                 break;
   506   001ADA  EC6B  F00F         	call	_init	;wreg free
   507   001ADE  EFA3  F00D         	goto	l2951
   508   001AE2                     l2935:
   509                           
   510                           ;main.c: 584:                 break;
   511   001AE2  0E00               	movlw	0
   512   001AE4  6E33               	movwf	(cubeidle@id+1)^0,c
   513   001AE6  0E00               	movlw	0
   514   001AE8  6E32               	movwf	cubeidle@id^0,c
   515   001AEA  EC92  F00C         	call	_cubeidle	;wreg free
   516                           
   517                           ;main.c: 585:             default:
   518   001AEE  EFA3  F00D         	goto	l2951
   519   001AF2                     l2937:
   520                           
   521                           ;main.c: 587:                 break;
   522   001AF2  0E00               	movlw	0
   523   001AF4  6E33               	movwf	(speedup@id+1)^0,c
   524   001AF6  0E01               	movlw	1
   525   001AF8  6E32               	movwf	speedup@id^0,c
   526   001AFA  EC7D  F006         	call	_speedup	;wreg free
   527                           
   528                           ;main.c: 588:         }
   529   001AFE  EFA3  F00D         	goto	l2951
   530   001B02                     l2939:
   531                           
   532                           ;main.c: 590:     };
   533   001B02  0E00               	movlw	0
   534   001B04  6E33               	movwf	(pulsing@id+1)^0,c
   535   001B06  0E02               	movlw	2
   536   001B08  6E32               	movwf	pulsing@id^0,c
   537   001B0A  EC31  F009         	call	_pulsing	;wreg free
   538                           
   539                           ;main.c: 591:     return;
   540   001B0E  EFA3  F00D         	goto	l2951
   541   001B12                     l2941:
   542                           
   543                           ;main.c: 593: 
   544   001B12  0E00               	movlw	0
   545   001B14  6E33               	movwf	(random_pattern@id+1)^0,c
   546   001B16  0E03               	movlw	3
   547   001B18  6E32               	movwf	random_pattern@id^0,c
   548   001B1A  ECEF  F007         	call	_random_pattern	;wreg free
   549                           
   550                           ;main.c: 594: void __attribute__((picinterrupt(("high_priority"))))H_ISR(){
   551   001B1E  EFA3  F00D         	goto	l2951
   552   001B22                     l2943:
   553                           
   554                           ;main.c: 596:     int value = ((ADRESH<<8) + ADRESL);
   555   001B22  0E00               	movlw	0
   556   001B24  6E33               	movwf	(rainfall@id+1)^0,c
   557   001B26  0E04               	movlw	4
   558   001B28  6E32               	movwf	rainfall@id^0,c
   559   001B2A  EC09  F000         	call	_rainfall	;wreg free
   560                           
   561                           ;main.c: 597: 
   562   001B2E  EFA3  F00D         	goto	l2951
   563   001B32                     l2945:
   564                           
   565                           ;main.c: 599:     unsigned char mapResult = 0;
   566   001B32  0E00               	movlw	0
   567   001B34  6E33               	movwf	(scan@id+1)^0,c
   568   001B36  0E05               	movlw	5
   569   001B38  6E32               	movwf	scan@id^0,c
   570   001B3A  EC69  F004         	call	_scan	;wreg free
   571                           
   572                           ;main.c: 600: 
   573   001B3E  EFA3  F00D         	goto	l2951
   574   001B42                     l2947:
   575                           
   576                           ;main.c: 602:         value -= 205;
   577   001B42  EC23  F00E         	call	_clear_cube	;wreg free
   578   001B46                     l2951:
   579   001B46  C054  F052         	movff	_mode,??_main
   580   001B4A  C055  F053         	movff	_mode+1,??_main+1
   581                           
   582                           ; Switch on 2 bytes has been partitioned into a top level switch of size 1, and 1 sub-sw
      +                          itches
   583                           ; Switch size 1, requested type "simple"
   584                           ; Number of cases is 1, Range of values is 0 to 0
   585                           ; switch strategies available:
   586                           ; Name         Instructions Cycles
   587                           ; simple_byte            4     3 (average)
   588                           ;	Chosen strategy is simple_byte
   589   001B4E  5053               	movf	(??_main+1)^0,w,c
   590   001B50  0A00               	xorlw	0	; case 0
   591   001B52  B4D8               	btfsc	status,2,c
   592   001B54  EFAE  F00D         	goto	l2997
   593   001B58  EFA1  F00D         	goto	l2947
   594   001B5C                     l2997:
   595                           
   596                           ; Switch size 1, requested type "simple"
   597                           ; Number of cases is 6, Range of values is 0 to 5
   598                           ; switch strategies available:
   599                           ; Name         Instructions Cycles
   600                           ; simple_byte           19    10 (average)
   601                           ;	Chosen strategy is simple_byte
   602   001B5C  5052               	movf	??_main^0,w,c
   603   001B5E  0A00               	xorlw	0	; case 0
   604   001B60  B4D8               	btfsc	status,2,c
   605   001B62  EF71  F00D         	goto	l2935
   606   001B66  0A01               	xorlw	1	; case 1
   607   001B68  B4D8               	btfsc	status,2,c
   608   001B6A  EF79  F00D         	goto	l2937
   609   001B6E  0A03               	xorlw	3	; case 2
   610   001B70  B4D8               	btfsc	status,2,c
   611   001B72  EF81  F00D         	goto	l2939
   612   001B76  0A01               	xorlw	1	; case 3
   613   001B78  B4D8               	btfsc	status,2,c
   614   001B7A  EF89  F00D         	goto	l2941
   615   001B7E  0A07               	xorlw	7	; case 4
   616   001B80  B4D8               	btfsc	status,2,c
   617   001B82  EF91  F00D         	goto	l2943
   618   001B86  0A01               	xorlw	1	; case 5
   619   001B88  B4D8               	btfsc	status,2,c
   620   001B8A  EF99  F00D         	goto	l2945
   621   001B8E  EFA1  F00D         	goto	l2947
   622   001B92  EF07  F000         	goto	start
   623   001B96                     __end_of_main:
   624                           	callstack 0
   625                           
   626 ;; *************** function _speedup *****************
   627 ;; Defined at:
   628 ;;		line 477 in file "main.c"
   629 ;; Parameters:    Size  Location     Type
   630 ;;  id              2   49[COMRAM] int 
   631 ;; Auto vars:     Size  Location     Type
   632 ;;  j               2   62[COMRAM] int 
   633 ;;  j               2   60[COMRAM] int 
   634 ;;  j               2   52[COMRAM] int 
   635 ;;  i               2   58[COMRAM] int 
   636 ;;  del             2   56[COMRAM] int 
   637 ;;  dcnt            2   54[COMRAM] int 
   638 ;; Return value:  Size  Location     Type
   639 ;;                  1    wreg      void 
   640 ;; Registers used:
   641 ;;		wreg, fsr2l, fsr2h, status,2, status,0, prodl, prodh, cstack
   642 ;; Tracked objects:
   643 ;;		On entry : 0/0
   644 ;;		On exit  : 0/0
   645 ;;		Unchanged: 0/0
   646 ;; Data sizes:     COMRAM   BANK0   BANK1   BANK2   BANK3   BANK4   BANK5
   647 ;;      Params:         2       0       0       0       0       0       0
   648 ;;      Locals:        12       0       0       0       0       0       0
   649 ;;      Temps:          1       0       0       0       0       0       0
   650 ;;      Totals:        15       0       0       0       0       0       0
   651 ;;Total ram usage:       15 bytes
   652 ;; Hardware stack levels used: 1
   653 ;; Hardware stack levels required when called: 3
   654 ;; This function calls:
   655 ;;		___awmod
   656 ;;		___wmul
   657 ;;		_clear_cube
   658 ;;		_draw_plane
   659 ;;		_set_plane
   660 ;; This function is called by:
   661 ;;		_main
   662 ;; This function uses a non-reentrant model
   663 ;;
   664                           
   665                           	psect	text1
   666   000CFA                     __ptext1:
   667                           	callstack 0
   668   000CFA                     _speedup:
   669                           	callstack 27
   670   000CFA                     
   671                           ;main.c: 478:                 plane[j][0] = 0;
   672   000CFA  EC23  F00E         	call	_clear_cube	;wreg free
   673   000CFE                     
   674                           ;main.c: 479:                 plane[j][4] = 0;
   675   000CFE  0E00               	movlw	0
   676   000D00  6E3C               	movwf	(speedup@i+1)^0,c
   677   000D02  0E00               	movlw	0
   678   000D04  6E3B               	movwf	speedup@i^0,c
   679   000D06  0E00               	movlw	0
   680   000D08  6E38               	movwf	(speedup@dcnt+1)^0,c
   681   000D0A  0E00               	movlw	0
   682   000D0C  6E37               	movwf	speedup@dcnt^0,c
   683   000D0E  0E00               	movlw	0
   684   000D10  6E3A               	movwf	(speedup@del+1)^0,c
   685   000D12  0E32               	movlw	50
   686   000D14  6E39               	movwf	speedup@del^0,c
   687   000D16                     
   688                           ;main.c: 480:                 plane[0][j] = 0;
   689   000D16  0E00               	movlw	0
   690   000D18  0100               	movlb	0	; () banked
   691   000D1A  6F81               	movwf	(_plane+1)& (0+255),b
   692   000D1C  0E01               	movlw	1
   693   000D1E  6F80               	movwf	_plane& (0+255),b
   694   000D20                     
   695                           ; BSR set to: 0
   696                           ;main.c: 481:                 plane[4][j] = 0;
   697   000D20  0E00               	movlw	0
   698   000D22  6F89               	movwf	(_plane+9)& (0+255),b
   699   000D24  0E01               	movlw	1
   700   000D26  6F88               	movwf	(_plane+8)& (0+255),b
   701   000D28                     
   702                           ; BSR set to: 0
   703                           ;main.c: 482:             }
   704   000D28  0E00               	movlw	0
   705   000D2A  6FA9               	movwf	(_plane+41)& (0+255),b
   706   000D2C  0E01               	movlw	1
   707   000D2E  6FA8               	movwf	(_plane+40)& (0+255),b
   708   000D30                     
   709                           ; BSR set to: 0
   710                           ;main.c: 483:         }
   711   000D30  0E00               	movlw	0
   712   000D32  6FB1               	movwf	(_plane+49)& (0+255),b
   713   000D34  0E01               	movlw	1
   714   000D36  6FB0               	movwf	(_plane+48)& (0+255),b
   715                           
   716                           ;main.c: 484: 
   717   000D38  EFE2  F007         	goto	l2801
   718   000D3C                     l2735:
   719                           
   720                           ;main.c: 485:         set_plane(5);
   721   000D3C  503B               	movf	speedup@i^0,w,c
   722   000D3E  103C               	iorwf	(speedup@i+1)^0,w,c
   723   000D40  B4D8               	btfsc	status,2,c
   724   000D42  EFA5  F006         	goto	u2871
   725   000D46  EFA7  F006         	goto	u2870
   726   000D4A                     u2871:
   727   000D4A  EFB1  F006         	goto	l2739
   728   000D4E                     u2870:
   729   000D4E  0E04               	movlw	4
   730   000D50  183B               	xorwf	speedup@i^0,w,c
   731   000D52  103C               	iorwf	(speedup@i+1)^0,w,c
   732   000D54  A4D8               	btfss	status,2,c
   733   000D56  EFAF  F006         	goto	u2881
   734   000D5A  EFB1  F006         	goto	u2880
   735   000D5E                     u2881:
   736   000D5E  EF09  F007         	goto	l2755
   737   000D62                     u2880:
   738   000D62                     l2739:
   739                           
   740                           ;main.c: 486:         draw_plane();
   741   000D62  0E00               	movlw	0
   742   000D64  6E3E               	movwf	(speedup@j+1)^0,c
   743   000D66  0E01               	movlw	1
   744   000D68  6E3D               	movwf	speedup@j^0,c
   745   000D6A                     l2745:
   746                           
   747                           ;main.c: 487:         set_plane(i);
   748   000D6A  C03D  F026         	movff	speedup@j,___wmul@multiplier
   749   000D6E  C03E  F027         	movff	speedup@j+1,___wmul@multiplier+1
   750   000D72  0E00               	movlw	0
   751   000D74  6E29               	movwf	(___wmul@multiplicand+1)^0,c
   752   000D76  0E0A               	movlw	10
   753   000D78  6E28               	movwf	___wmul@multiplicand^0,c
   754   000D7A  ECF8  F00F         	call	___wmul	;wreg free
   755   000D7E  0E80               	movlw	low _plane
   756   000D80  2426               	addwf	?___wmul^0,w,c
   757   000D82  6ED9               	movwf	fsr2l,c
   758   000D84  0E00               	movlw	high _plane
   759   000D86  2027               	addwfc	(?___wmul+1)^0,w,c
   760   000D88  6EDA               	movwf	fsr2h,c
   761   000D8A  0E01               	movlw	1
   762   000D8C  6EDE               	movwf	postinc2,c
   763   000D8E  0E00               	movlw	0
   764   000D90  6EDD               	movwf	postdec2,c
   765                           
   766                           ;main.c: 488:         for(int j=0;j<del && mode == id;j++)_delay((unsigned long)((1)*(40
      +                          00000/4000.0)));
   767   000D92  C03D  F026         	movff	speedup@j,___wmul@multiplier
   768   000D96  C03E  F027         	movff	speedup@j+1,___wmul@multiplier+1
   769   000D9A  0E00               	movlw	0
   770   000D9C  6E29               	movwf	(___wmul@multiplicand+1)^0,c
   771   000D9E  0E0A               	movlw	10
   772   000DA0  6E28               	movwf	___wmul@multiplicand^0,c
   773   000DA2  ECF8  F00F         	call	___wmul	;wreg free
   774   000DA6  0E88               	movlw	low (_plane+8)
   775   000DA8  2426               	addwf	?___wmul^0,w,c
   776   000DAA  6ED9               	movwf	fsr2l,c
   777   000DAC  0E00               	movlw	high (_plane+8)
   778   000DAE  2027               	addwfc	(?___wmul+1)^0,w,c
   779   000DB0  6EDA               	movwf	fsr2h,c
   780   000DB2  0E01               	movlw	1
   781   000DB4  6EDE               	movwf	postinc2,c
   782   000DB6  0E00               	movlw	0
   783   000DB8  6EDD               	movwf	postdec2,c
   784   000DBA                     
   785                           ;main.c: 489:         dcnt++;
   786   000DBA  90D8               	bcf	status,0,c
   787   000DBC  343D               	rlcf	speedup@j^0,w,c
   788   000DBE  6ED9               	movwf	fsr2l,c
   789   000DC0  343E               	rlcf	(speedup@j+1)^0,w,c
   790   000DC2  6EDA               	movwf	fsr2h,c
   791   000DC4  0E80               	movlw	low _plane
   792   000DC6  26D9               	addwf	fsr2l,f,c
   793   000DC8  0E00               	movlw	high _plane
   794   000DCA  22DA               	addwfc	fsr2h,f,c
   795   000DCC  0E01               	movlw	1
   796   000DCE  6EDE               	movwf	postinc2,c
   797   000DD0  0E00               	movlw	0
   798   000DD2  6EDD               	movwf	postdec2,c
   799   000DD4                     
   800                           ;main.c: 490:         if(del>10)del-=2;
   801   000DD4  90D8               	bcf	status,0,c
   802   000DD6  343D               	rlcf	speedup@j^0,w,c
   803   000DD8  6ED9               	movwf	fsr2l,c
   804   000DDA  343E               	rlcf	(speedup@j+1)^0,w,c
   805   000DDC  6EDA               	movwf	fsr2h,c
   806   000DDE  0EA8               	movlw	low (_plane+40)
   807   000DE0  26D9               	addwf	fsr2l,f,c
   808   000DE2  0E00               	movlw	high (_plane+40)
   809   000DE4  22DA               	addwfc	fsr2h,f,c
   810   000DE6  0E01               	movlw	1
   811   000DE8  6EDE               	movwf	postinc2,c
   812   000DEA  0E00               	movlw	0
   813   000DEC  6EDD               	movwf	postdec2,c
   814   000DEE                     
   815                           ;main.c: 491:         else if(del>0 && dcnt == 10)del-=1;
   816   000DEE  4A3D               	infsnz	speedup@j^0,f,c
   817   000DF0  2A3E               	incf	(speedup@j+1)^0,f,c
   818   000DF2  BE3E               	btfsc	(speedup@j+1)^0,7,c
   819   000DF4  EF05  F007         	goto	u2891
   820   000DF8  503E               	movf	(speedup@j+1)^0,w,c
   821   000DFA  E109               	bnz	u2890
   822   000DFC  0E04               	movlw	4
   823   000DFE  5C3D               	subwf	speedup@j^0,w,c
   824   000E00  A0D8               	btfss	status,0,c
   825   000E02  EF05  F007         	goto	u2891
   826   000E06  EF07  F007         	goto	u2890
   827   000E0A                     u2891:
   828   000E0A  EFB5  F006         	goto	l2745
   829   000E0E                     u2890:
   830   000E0E  EF5F  F007         	goto	l2771
   831   000E12                     l2755:
   832                           
   833                           ;main.c: 493:         i++;
   834   000E12  0E00               	movlw	0
   835   000E14  6E40               	movwf	(speedup@j_747+1)^0,c
   836   000E16  0E01               	movlw	1
   837   000E18  6E3F               	movwf	speedup@j_747^0,c
   838   000E1A                     l2761:
   839                           
   840                           ;main.c: 494:         i%=5;
   841   000E1A  C03F  F026         	movff	speedup@j_747,___wmul@multiplier
   842   000E1E  C040  F027         	movff	speedup@j_747+1,___wmul@multiplier+1
   843   000E22  0E00               	movlw	0
   844   000E24  6E29               	movwf	(___wmul@multiplicand+1)^0,c
   845   000E26  0E0A               	movlw	10
   846   000E28  6E28               	movwf	___wmul@multiplicand^0,c
   847   000E2A  ECF8  F00F         	call	___wmul	;wreg free
   848   000E2E  0E80               	movlw	low _plane
   849   000E30  2426               	addwf	?___wmul^0,w,c
   850   000E32  6ED9               	movwf	fsr2l,c
   851   000E34  0E00               	movlw	high _plane
   852   000E36  2027               	addwfc	(?___wmul+1)^0,w,c
   853   000E38  6EDA               	movwf	fsr2h,c
   854   000E3A  0E00               	movlw	0
   855   000E3C  6EDE               	movwf	postinc2,c
   856   000E3E  0E00               	movlw	0
   857   000E40  6EDD               	movwf	postdec2,c
   858                           
   859                           ;main.c: 495:     }
   860   000E42  C03F  F026         	movff	speedup@j_747,___wmul@multiplier
   861   000E46  C040  F027         	movff	speedup@j_747+1,___wmul@multiplier+1
   862   000E4A  0E00               	movlw	0
   863   000E4C  6E29               	movwf	(___wmul@multiplicand+1)^0,c
   864   000E4E  0E0A               	movlw	10
   865   000E50  6E28               	movwf	___wmul@multiplicand^0,c
   866   000E52  ECF8  F00F         	call	___wmul	;wreg free
   867   000E56  0E88               	movlw	low (_plane+8)
   868   000E58  2426               	addwf	?___wmul^0,w,c
   869   000E5A  6ED9               	movwf	fsr2l,c
   870   000E5C  0E00               	movlw	high (_plane+8)
   871   000E5E  2027               	addwfc	(?___wmul+1)^0,w,c
   872   000E60  6EDA               	movwf	fsr2h,c
   873   000E62  0E00               	movlw	0
   874   000E64  6EDE               	movwf	postinc2,c
   875   000E66  0E00               	movlw	0
   876   000E68  6EDD               	movwf	postdec2,c
   877   000E6A                     
   878                           ;main.c: 496: }
   879   000E6A  90D8               	bcf	status,0,c
   880   000E6C  343F               	rlcf	speedup@j_747^0,w,c
   881   000E6E  6ED9               	movwf	fsr2l,c
   882   000E70  3440               	rlcf	(speedup@j_747+1)^0,w,c
   883   000E72  6EDA               	movwf	fsr2h,c
   884   000E74  0E80               	movlw	low _plane
   885   000E76  26D9               	addwf	fsr2l,f,c
   886   000E78  0E00               	movlw	high _plane
   887   000E7A  22DA               	addwfc	fsr2h,f,c
   888   000E7C  0E00               	movlw	0
   889   000E7E  6EDE               	movwf	postinc2,c
   890   000E80  0E00               	movlw	0
   891   000E82  6EDD               	movwf	postdec2,c
   892   000E84                     
   893                           ;main.c: 497: 
   894   000E84  90D8               	bcf	status,0,c
   895   000E86  343F               	rlcf	speedup@j_747^0,w,c
   896   000E88  6ED9               	movwf	fsr2l,c
   897   000E8A  3440               	rlcf	(speedup@j_747+1)^0,w,c
   898   000E8C  6EDA               	movwf	fsr2h,c
   899   000E8E  0EA8               	movlw	low (_plane+40)
   900   000E90  26D9               	addwf	fsr2l,f,c
   901   000E92  0E00               	movlw	high (_plane+40)
   902   000E94  22DA               	addwfc	fsr2h,f,c
   903   000E96  0E00               	movlw	0
   904   000E98  6EDE               	movwf	postinc2,c
   905   000E9A  0E00               	movlw	0
   906   000E9C  6EDD               	movwf	postdec2,c
   907   000E9E                     
   908                           ;main.c: 498: void cubeidle(int id){
   909   000E9E  4A3F               	infsnz	speedup@j_747^0,f,c
   910   000EA0  2A40               	incf	(speedup@j_747+1)^0,f,c
   911   000EA2  BE40               	btfsc	(speedup@j_747+1)^0,7,c
   912   000EA4  EF5D  F007         	goto	u2901
   913   000EA8  5040               	movf	(speedup@j_747+1)^0,w,c
   914   000EAA  E109               	bnz	u2900
   915   000EAC  0E04               	movlw	4
   916   000EAE  5C3F               	subwf	speedup@j_747^0,w,c
   917   000EB0  A0D8               	btfss	status,0,c
   918   000EB2  EF5D  F007         	goto	u2901
   919   000EB6  EF5F  F007         	goto	u2900
   920   000EBA                     u2901:
   921   000EBA  EF0D  F007         	goto	l2761
   922   000EBE                     u2900:
   923   000EBE                     l2771:
   924                           
   925                           ;main.c: 501:     lighton(0,-1);
   926   000EBE  0E00               	movlw	0
   927   000EC0  6E27               	movwf	(set_plane@a+1)^0,c
   928   000EC2  0E05               	movlw	5
   929   000EC4  6E26               	movwf	set_plane@a^0,c
   930   000EC6  EC18  F010         	call	_set_plane	;wreg free
   931   000ECA                     
   932                           ;main.c: 502:     while(mode == id){
   933   000ECA  EC68  F00B         	call	_draw_plane	;wreg free
   934   000ECE                     
   935                           ;main.c: 503:         for(int i=1;i<125 && mode == 0;i++){
   936   000ECE  C03B  F026         	movff	speedup@i,set_plane@a
   937   000ED2  C03C  F027         	movff	speedup@i+1,set_plane@a+1
   938   000ED6  EC18  F010         	call	_set_plane	;wreg free
   939   000EDA                     
   940                           ;main.c: 504:             lighton(i,i-1);
   941   000EDA  0E00               	movlw	0
   942   000EDC  6E36               	movwf	(speedup@j_748+1)^0,c
   943   000EDE  0E00               	movlw	0
   944   000EE0  6E35               	movwf	speedup@j_748^0,c
   945   000EE2  EF79  F007         	goto	l304
   946   000EE6                     l2779:
   947   000EE6  0EC8               	movlw	200
   948   000EE8                     u3067:
   949   000EE8  D000               	nop2	
   950   000EEA  2EE8               	decfsz	wreg,f,c
   951   000EEC  D7FD               	bra	u3067
   952   000EEE  4A35               	infsnz	speedup@j_748^0,f,c
   953   000EF0  2A36               	incf	(speedup@j_748+1)^0,f,c
   954   000EF2                     l304:
   955   000EF2  5039               	movf	speedup@del^0,w,c
   956   000EF4  5C35               	subwf	speedup@j_748^0,w,c
   957   000EF6  5036               	movf	(speedup@j_748+1)^0,w,c
   958   000EF8  0A80               	xorlw	128
   959   000EFA  6E34               	movwf	??_speedup^0,c
   960   000EFC  503A               	movf	(speedup@del+1)^0,w,c
   961   000EFE  0A80               	xorlw	128
   962   000F00  5834               	subwfb	??_speedup^0,w,c
   963   000F02  B0D8               	btfsc	status,0,c
   964   000F04  EF86  F007         	goto	u2911
   965   000F08  EF88  F007         	goto	u2910
   966   000F0C                     u2911:
   967   000F0C  EF94  F007         	goto	l2785
   968   000F10                     u2910:
   969   000F10  5032               	movf	speedup@id^0,w,c
   970   000F12  1854               	xorwf	_mode^0,w,c
   971   000F14  E109               	bnz	u2920
   972   000F16  5033               	movf	(speedup@id+1)^0,w,c
   973   000F18  1855               	xorwf	(_mode+1)^0,w,c
   974   000F1A  B4D8               	btfsc	status,2,c
   975   000F1C  EF92  F007         	goto	u2921
   976   000F20  EF94  F007         	goto	u2920
   977   000F24                     u2921:
   978   000F24  EF73  F007         	goto	l2779
   979   000F28                     u2920:
   980   000F28                     l2785:
   981                           
   982                           ;main.c: 505:             _delay((unsigned long)((10)*(4000000/4000.0)));
   983   000F28  4A37               	infsnz	speedup@dcnt^0,f,c
   984   000F2A  2A38               	incf	(speedup@dcnt+1)^0,f,c
   985   000F2C                     
   986                           ;main.c: 506:         }
   987   000F2C  BE3A               	btfsc	(speedup@del+1)^0,7,c
   988   000F2E  EFA2  F007         	goto	u2931
   989   000F32  503A               	movf	(speedup@del+1)^0,w,c
   990   000F34  E109               	bnz	u2930
   991   000F36  0E0B               	movlw	11
   992   000F38  5C39               	subwf	speedup@del^0,w,c
   993   000F3A  A0D8               	btfss	status,0,c
   994   000F3C  EFA2  F007         	goto	u2931
   995   000F40  EFA4  F007         	goto	u2930
   996   000F44                     u2931:
   997   000F44  EFAA  F007         	goto	l2791
   998   000F48                     u2930:
   999   000F48  0EFE               	movlw	254
  1000   000F4A  2639               	addwf	speedup@del^0,f,c
  1001   000F4C  0EFF               	movlw	255
  1002   000F4E  223A               	addwfc	(speedup@del+1)^0,f,c
  1003   000F50  EFC4  F007         	goto	l2797
  1004   000F54                     l2791:
  1005   000F54  BE3A               	btfsc	(speedup@del+1)^0,7,c
  1006   000F56  EFB5  F007         	goto	u2941
  1007   000F5A  503A               	movf	(speedup@del+1)^0,w,c
  1008   000F5C  E108               	bnz	u2940
  1009   000F5E  0439               	decf	speedup@del^0,w,c
  1010   000F60  A0D8               	btfss	status,0,c
  1011   000F62  EFB5  F007         	goto	u2941
  1012   000F66  EFB7  F007         	goto	u2940
  1013   000F6A                     u2941:
  1014   000F6A  EFC4  F007         	goto	l2797
  1015   000F6E                     u2940:
  1016   000F6E  0E0A               	movlw	10
  1017   000F70  1837               	xorwf	speedup@dcnt^0,w,c
  1018   000F72  1038               	iorwf	(speedup@dcnt+1)^0,w,c
  1019   000F74  A4D8               	btfss	status,2,c
  1020   000F76  EFBF  F007         	goto	u2951
  1021   000F7A  EFC1  F007         	goto	u2950
  1022   000F7E                     u2951:
  1023   000F7E  EFC4  F007         	goto	l2797
  1024   000F82                     u2950:
  1025   000F82  0639               	decf	speedup@del^0,f,c
  1026   000F84  A0D8               	btfss	status,0,c
  1027   000F86  063A               	decf	(speedup@del+1)^0,f,c
  1028   000F88                     l2797:
  1029                           
  1030                           ;main.c: 508:         _delay((unsigned long)((2)*(4000000/4000.0)));
  1031   000F88  C037  F018         	movff	speedup@dcnt,___awmod@dividend
  1032   000F8C  C038  F019         	movff	speedup@dcnt+1,___awmod@dividend+1
  1033   000F90  0E00               	movlw	0
  1034   000F92  6E1B               	movwf	(___awmod@divisor+1)^0,c
  1035   000F94  0E0A               	movlw	10
  1036   000F96  6E1A               	movwf	___awmod@divisor^0,c
  1037   000F98  ECCB  F00D         	call	___awmod	;wreg free
  1038   000F9C  C018  F037         	movff	?___awmod,speedup@dcnt
  1039   000FA0  C019  F038         	movff	?___awmod+1,speedup@dcnt+1
  1040   000FA4                     
  1041                           ;main.c: 509:     }
  1042   000FA4  4A3B               	infsnz	speedup@i^0,f,c
  1043   000FA6  2A3C               	incf	(speedup@i+1)^0,f,c
  1044                           
  1045                           ;main.c: 510: 
  1046   000FA8  C03B  F018         	movff	speedup@i,___awmod@dividend
  1047   000FAC  C03C  F019         	movff	speedup@i+1,___awmod@dividend+1
  1048   000FB0  0E00               	movlw	0
  1049   000FB2  6E1B               	movwf	(___awmod@divisor+1)^0,c
  1050   000FB4  0E05               	movlw	5
  1051   000FB6  6E1A               	movwf	___awmod@divisor^0,c
  1052   000FB8  ECCB  F00D         	call	___awmod	;wreg free
  1053   000FBC  C018  F03B         	movff	?___awmod,speedup@i
  1054   000FC0  C019  F03C         	movff	?___awmod+1,speedup@i+1
  1055   000FC4                     l2801:
  1056                           
  1057                           ;main.c: 484: 
  1058   000FC4  5032               	movf	speedup@id^0,w,c
  1059   000FC6  1854               	xorwf	_mode^0,w,c
  1060   000FC8  E109               	bnz	u2960
  1061   000FCA  5033               	movf	(speedup@id+1)^0,w,c
  1062   000FCC  1855               	xorwf	(_mode+1)^0,w,c
  1063   000FCE  B4D8               	btfsc	status,2,c
  1064   000FD0  EFEC  F007         	goto	u2961
  1065   000FD4  EFEE  F007         	goto	u2960
  1066   000FD8                     u2961:
  1067   000FD8  EF9E  F006         	goto	l2735
  1068   000FDC                     u2960:
  1069   000FDC  0012               	return		;funcret
  1070   000FDE                     __end_of_speedup:
  1071                           	callstack 0
  1072                           
  1073 ;; *************** function _scan *****************
  1074 ;; Defined at:
  1075 ;;		line 420 in file "main.c"
  1076 ;; Parameters:    Size  Location     Type
  1077 ;;  id              2   49[COMRAM] int 
  1078 ;; Auto vars:     Size  Location     Type
  1079 ;;  j               2   79[COMRAM] int 
  1080 ;;  j               2   75[COMRAM] int 
  1081 ;;  j               2   71[COMRAM] int 
  1082 ;;  j               2   67[COMRAM] int 
  1083 ;;  j               2   57[COMRAM] int 
  1084 ;;  i               2   77[COMRAM] int 
  1085 ;;  i               2   73[COMRAM] int 
  1086 ;;  i               2   69[COMRAM] int 
  1087 ;;  i               2   65[COMRAM] int 
  1088 ;;  i               2   63[COMRAM] int 
  1089 ;;  i               2   61[COMRAM] int 
  1090 ;;  i               2   59[COMRAM] int 
  1091 ;;  i               2   55[COMRAM] int 
  1092 ;; Return value:  Size  Location     Type
  1093 ;;                  1    wreg      void 
  1094 ;; Registers used:
  1095 ;;		wreg, fsr2l, fsr2h, status,2, status,0, prodl, prodh, cstack
  1096 ;; Tracked objects:
  1097 ;;		On entry : 0/0
  1098 ;;		On exit  : 0/0
  1099 ;;		Unchanged: 0/0
  1100 ;; Data sizes:     COMRAM   BANK0   BANK1   BANK2   BANK3   BANK4   BANK5
  1101 ;;      Params:         2       0       0       0       0       0       0
  1102 ;;      Locals:        26       0       0       0       0       0       0
  1103 ;;      Temps:          4       0       0       0       0       0       0
  1104 ;;      Totals:        32       0       0       0       0       0       0
  1105 ;;Total ram usage:       32 bytes
  1106 ;; Hardware stack levels used: 1
  1107 ;; Hardware stack levels required when called: 3
  1108 ;; This function calls:
  1109 ;;		___wmul
  1110 ;;		_clear_cube
  1111 ;;		_clear_plane
  1112 ;;		_draw_plane
  1113 ;;		_plane_on
  1114 ;;		_set_plane
  1115 ;; This function is called by:
  1116 ;;		_main
  1117 ;; This function uses a non-reentrant model
  1118 ;;
  1119                           
  1120                           	psect	text2
  1121   0008D2                     __ptext2:
  1122                           	callstack 0
  1123   0008D2                     _scan:
  1124                           	callstack 27
  1125   0008D2                     
  1126                           ;main.c: 421:         }
  1127   0008D2  EC23  F00E         	call	_clear_cube	;wreg free
  1128                           
  1129                           ;main.c: 423:             plane_on(i);
  1130   0008D6  EF70  F006         	goto	l2717
  1131   0008DA                     l2543:
  1132                           
  1133                           ;main.c: 424: 
  1134   0008DA  0E00               	movlw	0
  1135   0008DC  6E39               	movwf	(scan@i+1)^0,c
  1136   0008DE  0E00               	movlw	0
  1137   0008E0  6E38               	movwf	scan@i^0,c
  1138   0008E2                     l2549:
  1139                           
  1140                           ;main.c: 425:         for(int i = 0; i < 5; i++){
  1141   0008E2  0E00               	movlw	0
  1142   0008E4  6E3B               	movwf	(scan@j+1)^0,c
  1143   0008E6  0E00               	movlw	0
  1144   0008E8  6E3A               	movwf	scan@j^0,c
  1145   0008EA                     l2555:
  1146                           
  1147                           ;main.c: 426:             clear_plane();
  1148   0008EA  C038  F026         	movff	scan@i,___wmul@multiplier
  1149   0008EE  C039  F027         	movff	scan@i+1,___wmul@multiplier+1
  1150   0008F2  0E00               	movlw	0
  1151   0008F4  6E29               	movwf	(___wmul@multiplicand+1)^0,c
  1152   0008F6  0E0A               	movlw	10
  1153   0008F8  6E28               	movwf	___wmul@multiplicand^0,c
  1154   0008FA  ECF8  F00F         	call	___wmul	;wreg free
  1155   0008FE  0E80               	movlw	low _plane
  1156   000900  2426               	addwf	?___wmul^0,w,c
  1157   000902  6E34               	movwf	??_scan^0,c
  1158   000904  0E00               	movlw	high _plane
  1159   000906  2027               	addwfc	(?___wmul+1)^0,w,c
  1160   000908  6E35               	movwf	(??_scan+1)^0,c
  1161   00090A  90D8               	bcf	status,0,c
  1162   00090C  343A               	rlcf	scan@j^0,w,c
  1163   00090E  6ED9               	movwf	fsr2l,c
  1164   000910  343B               	rlcf	(scan@j+1)^0,w,c
  1165   000912  6EDA               	movwf	fsr2h,c
  1166   000914  5034               	movf	??_scan^0,w,c
  1167   000916  26D9               	addwf	fsr2l,f,c
  1168   000918  5035               	movf	(??_scan+1)^0,w,c
  1169   00091A  22DA               	addwfc	fsr2h,f,c
  1170   00091C  0E01               	movlw	1
  1171   00091E  6EDE               	movwf	postinc2,c
  1172   000920  0E00               	movlw	0
  1173   000922  6EDD               	movwf	postdec2,c
  1174   000924  4A3A               	infsnz	scan@j^0,f,c
  1175   000926  2A3B               	incf	(scan@j+1)^0,f,c
  1176   000928  BE3B               	btfsc	(scan@j+1)^0,7,c
  1177   00092A  EFA0  F004         	goto	u2731
  1178   00092E  503B               	movf	(scan@j+1)^0,w,c
  1179   000930  E109               	bnz	u2730
  1180   000932  0E05               	movlw	5
  1181   000934  5C3A               	subwf	scan@j^0,w,c
  1182   000936  A0D8               	btfss	status,0,c
  1183   000938  EFA0  F004         	goto	u2731
  1184   00093C  EFA2  F004         	goto	u2730
  1185   000940                     u2731:
  1186   000940  EF75  F004         	goto	l2555
  1187   000944                     u2730:
  1188   000944  4A38               	infsnz	scan@i^0,f,c
  1189   000946  2A39               	incf	(scan@i+1)^0,f,c
  1190   000948  BE39               	btfsc	(scan@i+1)^0,7,c
  1191   00094A  EFB0  F004         	goto	u2741
  1192   00094E  5039               	movf	(scan@i+1)^0,w,c
  1193   000950  E109               	bnz	u2740
  1194   000952  0E05               	movlw	5
  1195   000954  5C38               	subwf	scan@i^0,w,c
  1196   000956  A0D8               	btfss	status,0,c
  1197   000958  EFB0  F004         	goto	u2741
  1198   00095C  EFB2  F004         	goto	u2740
  1199   000960                     u2741:
  1200   000960  EF71  F004         	goto	l2549
  1201   000964                     u2740:
  1202   000964                     
  1203                           ;main.c: 428:                 plane[i][j] = 1;
  1204   000964  0E00               	movlw	0
  1205   000966  6E3D               	movwf	(scan@i_730+1)^0,c
  1206   000968  0E00               	movlw	0
  1207   00096A  6E3C               	movwf	scan@i_730^0,c
  1208   00096C                     l2571:
  1209                           
  1210                           ;main.c: 429:             }
  1211   00096C  C03C  F026         	movff	scan@i_730,set_plane@a
  1212   000970  C03D  F027         	movff	scan@i_730+1,set_plane@a+1
  1213   000974  EC18  F010         	call	_set_plane	;wreg free
  1214   000978                     
  1215                           ;main.c: 430:             draw_plane();
  1216   000978  EC68  F00B         	call	_draw_plane	;wreg free
  1217   00097C                     
  1218                           ;main.c: 431:             _delay((unsigned long)((8)*(4000000/4000.0)));
  1219   00097C  0E0B               	movlw	11
  1220   00097E  6E34               	movwf	??_scan^0,c
  1221   000980  0E62               	movlw	98
  1222   000982                     u3077:
  1223   000982  2EE8               	decfsz	wreg,f,c
  1224   000984  D7FE               	bra	u3077
  1225   000986  2E34               	decfsz	??_scan^0,f,c
  1226   000988  D7FC               	bra	u3077
  1227   00098A  D000               	nop2	
  1228                           
  1229                           ;main.c: 432:         }
  1230   00098C  4A3C               	infsnz	scan@i_730^0,f,c
  1231   00098E  2A3D               	incf	(scan@i_730+1)^0,f,c
  1232   000990  BE3D               	btfsc	(scan@i_730+1)^0,7,c
  1233   000992  EFD4  F004         	goto	u2751
  1234   000996  503D               	movf	(scan@i_730+1)^0,w,c
  1235   000998  E109               	bnz	u2750
  1236   00099A  0E05               	movlw	5
  1237   00099C  5C3C               	subwf	scan@i_730^0,w,c
  1238   00099E  A0D8               	btfss	status,0,c
  1239   0009A0  EFD4  F004         	goto	u2751
  1240   0009A4  EFD6  F004         	goto	u2750
  1241   0009A8                     u2751:
  1242   0009A8  EFB6  F004         	goto	l2571
  1243   0009AC                     u2750:
  1244   0009AC                     
  1245                           ;main.c: 433:         for(int i = 0; i < 4; i++){
  1246   0009AC  0E00               	movlw	0
  1247   0009AE  6E3F               	movwf	(scan@i_731+1)^0,c
  1248   0009B0  0E00               	movlw	0
  1249   0009B2  6E3E               	movwf	scan@i_731^0,c
  1250   0009B4                     l2585:
  1251                           
  1252                           ;main.c: 434:             clear_plane();
  1253   0009B4  503E               	movf	scan@i_731^0,w,c
  1254   0009B6  0804               	sublw	4
  1255   0009B8  6E26               	movwf	set_plane@a^0,c
  1256   0009BA  503F               	movf	(scan@i_731+1)^0,w,c
  1257   0009BC  A0D8               	btfss	status,0,c
  1258   0009BE  2AE8               	incf	wreg,f,c
  1259   0009C0  0800               	sublw	0
  1260   0009C2  6E27               	movwf	(set_plane@a+1)^0,c
  1261   0009C4  EC18  F010         	call	_set_plane	;wreg free
  1262   0009C8                     
  1263                           ;main.c: 435:             for(int j = 0; j < 5; j++){
  1264   0009C8  EC68  F00B         	call	_draw_plane	;wreg free
  1265   0009CC                     
  1266                           ;main.c: 436:                 plane[4-i][j] = 1;
  1267   0009CC  0E0B               	movlw	11
  1268   0009CE  6E34               	movwf	??_scan^0,c
  1269   0009D0  0E62               	movlw	98
  1270   0009D2                     u3087:
  1271   0009D2  2EE8               	decfsz	wreg,f,c
  1272   0009D4  D7FE               	bra	u3087
  1273   0009D6  2E34               	decfsz	??_scan^0,f,c
  1274   0009D8  D7FC               	bra	u3087
  1275   0009DA  D000               	nop2	
  1276                           
  1277                           ;main.c: 437:             }
  1278   0009DC  4A3E               	infsnz	scan@i_731^0,f,c
  1279   0009DE  2A3F               	incf	(scan@i_731+1)^0,f,c
  1280   0009E0  BE3F               	btfsc	(scan@i_731+1)^0,7,c
  1281   0009E2  EFFC  F004         	goto	u2761
  1282   0009E6  503F               	movf	(scan@i_731+1)^0,w,c
  1283   0009E8  E109               	bnz	u2760
  1284   0009EA  0E04               	movlw	4
  1285   0009EC  5C3E               	subwf	scan@i_731^0,w,c
  1286   0009EE  A0D8               	btfss	status,0,c
  1287   0009F0  EFFC  F004         	goto	u2761
  1288   0009F4  EFFE  F004         	goto	u2760
  1289   0009F8                     u2761:
  1290   0009F8  EFDA  F004         	goto	l2585
  1291   0009FC                     u2760:
  1292   0009FC                     
  1293                           ;main.c: 438:             draw_plane();
  1294   0009FC  0E00               	movlw	0
  1295   0009FE  6E41               	movwf	(scan@i_732+1)^0,c
  1296   000A00  0E00               	movlw	0
  1297   000A02  6E40               	movwf	scan@i_732^0,c
  1298   000A04                     l2599:
  1299                           
  1300                           ;main.c: 439:             _delay((unsigned long)((8)*(4000000/4000.0)));
  1301   000A04  C040  F006         	movff	scan@i_732,plane_on@a
  1302   000A08  C041  F007         	movff	scan@i_732+1,plane_on@a+1
  1303   000A0C  ECC0  F00E         	call	_plane_on	;wreg free
  1304   000A10  4A40               	infsnz	scan@i_732^0,f,c
  1305   000A12  2A41               	incf	(scan@i_732+1)^0,f,c
  1306   000A14  BE41               	btfsc	(scan@i_732+1)^0,7,c
  1307   000A16  EF16  F005         	goto	u2771
  1308   000A1A  5041               	movf	(scan@i_732+1)^0,w,c
  1309   000A1C  E109               	bnz	u2770
  1310   000A1E  0E05               	movlw	5
  1311   000A20  5C40               	subwf	scan@i_732^0,w,c
  1312   000A22  A0D8               	btfss	status,0,c
  1313   000A24  EF16  F005         	goto	u2771
  1314   000A28  EF18  F005         	goto	u2770
  1315   000A2C                     u2771:
  1316   000A2C  EF02  F005         	goto	l2599
  1317   000A30                     u2770:
  1318   000A30                     
  1319                           ;main.c: 441: 
  1320   000A30  0E00               	movlw	0
  1321   000A32  6E43               	movwf	(scan@i_733+1)^0,c
  1322   000A34  0E00               	movlw	0
  1323   000A36  6E42               	movwf	scan@i_733^0,c
  1324   000A38                     l2611:
  1325                           
  1326                           ;main.c: 442:         for(int i = 0; i < 5; i++){
  1327   000A38  EC78  F00E         	call	_clear_plane	;wreg free
  1328   000A3C                     
  1329                           ;main.c: 443:             clear_plane();
  1330   000A3C  0E00               	movlw	0
  1331   000A3E  6E45               	movwf	(scan@j_734+1)^0,c
  1332   000A40  0E00               	movlw	0
  1333   000A42  6E44               	movwf	scan@j_734^0,c
  1334   000A44                     l2619:
  1335                           
  1336                           ;main.c: 444:             for(int j = 0; j < 5; j++){
  1337   000A44  C042  F026         	movff	scan@i_733,___wmul@multiplier
  1338   000A48  C043  F027         	movff	scan@i_733+1,___wmul@multiplier+1
  1339   000A4C  0E00               	movlw	0
  1340   000A4E  6E29               	movwf	(___wmul@multiplicand+1)^0,c
  1341   000A50  0E0A               	movlw	10
  1342   000A52  6E28               	movwf	___wmul@multiplicand^0,c
  1343   000A54  ECF8  F00F         	call	___wmul	;wreg free
  1344   000A58  0E80               	movlw	low _plane
  1345   000A5A  2426               	addwf	?___wmul^0,w,c
  1346   000A5C  6E34               	movwf	??_scan^0,c
  1347   000A5E  0E00               	movlw	high _plane
  1348   000A60  2027               	addwfc	(?___wmul+1)^0,w,c
  1349   000A62  6E35               	movwf	(??_scan+1)^0,c
  1350   000A64  90D8               	bcf	status,0,c
  1351   000A66  3444               	rlcf	scan@j_734^0,w,c
  1352   000A68  6ED9               	movwf	fsr2l,c
  1353   000A6A  3445               	rlcf	(scan@j_734+1)^0,w,c
  1354   000A6C  6EDA               	movwf	fsr2h,c
  1355   000A6E  5034               	movf	??_scan^0,w,c
  1356   000A70  26D9               	addwf	fsr2l,f,c
  1357   000A72  5035               	movf	(??_scan+1)^0,w,c
  1358   000A74  22DA               	addwfc	fsr2h,f,c
  1359   000A76  0E01               	movlw	1
  1360   000A78  6EDE               	movwf	postinc2,c
  1361   000A7A  0E00               	movlw	0
  1362   000A7C  6EDD               	movwf	postdec2,c
  1363   000A7E                     
  1364                           ;main.c: 445:                 plane[j][i] = 1;
  1365   000A7E  4A44               	infsnz	scan@j_734^0,f,c
  1366   000A80  2A45               	incf	(scan@j_734+1)^0,f,c
  1367   000A82  BE45               	btfsc	(scan@j_734+1)^0,7,c
  1368   000A84  EF4D  F005         	goto	u2781
  1369   000A88  5045               	movf	(scan@j_734+1)^0,w,c
  1370   000A8A  E109               	bnz	u2780
  1371   000A8C  0E05               	movlw	5
  1372   000A8E  5C44               	subwf	scan@j_734^0,w,c
  1373   000A90  A0D8               	btfss	status,0,c
  1374   000A92  EF4D  F005         	goto	u2781
  1375   000A96  EF4F  F005         	goto	u2780
  1376   000A9A                     u2781:
  1377   000A9A  EF22  F005         	goto	l2619
  1378   000A9E                     u2780:
  1379   000A9E                     
  1380                           ;main.c: 446:             }
  1381   000A9E  EC68  F00B         	call	_draw_plane	;wreg free
  1382   000AA2                     
  1383                           ;main.c: 447:             draw_plane();
  1384   000AA2  0E0B               	movlw	11
  1385   000AA4  6E34               	movwf	??_scan^0,c
  1386   000AA6  0E62               	movlw	98
  1387   000AA8                     u3097:
  1388   000AA8  2EE8               	decfsz	wreg,f,c
  1389   000AAA  D7FE               	bra	u3097
  1390   000AAC  2E34               	decfsz	??_scan^0,f,c
  1391   000AAE  D7FC               	bra	u3097
  1392   000AB0  D000               	nop2	
  1393   000AB2                     
  1394                           ;main.c: 448:             _delay((unsigned long)((8)*(4000000/4000.0)));
  1395   000AB2  4A42               	infsnz	scan@i_733^0,f,c
  1396   000AB4  2A43               	incf	(scan@i_733+1)^0,f,c
  1397   000AB6  BE43               	btfsc	(scan@i_733+1)^0,7,c
  1398   000AB8  EF67  F005         	goto	u2791
  1399   000ABC  5043               	movf	(scan@i_733+1)^0,w,c
  1400   000ABE  E109               	bnz	u2790
  1401   000AC0  0E05               	movlw	5
  1402   000AC2  5C42               	subwf	scan@i_733^0,w,c
  1403   000AC4  A0D8               	btfss	status,0,c
  1404   000AC6  EF67  F005         	goto	u2791
  1405   000ACA  EF69  F005         	goto	u2790
  1406   000ACE                     u2791:
  1407   000ACE  EF1C  F005         	goto	l2611
  1408   000AD2                     u2790:
  1409   000AD2                     
  1410                           ;main.c: 449:         }
  1411   000AD2  0E00               	movlw	0
  1412   000AD4  6E47               	movwf	(scan@i_735+1)^0,c
  1413   000AD6  0E00               	movlw	0
  1414   000AD8  6E46               	movwf	scan@i_735^0,c
  1415   000ADA                     l2639:
  1416                           
  1417                           ;main.c: 450:         for(int i = 0; i < 4; i++){
  1418   000ADA  EC78  F00E         	call	_clear_plane	;wreg free
  1419   000ADE                     
  1420                           ;main.c: 451:             clear_plane();
  1421   000ADE  0E00               	movlw	0
  1422   000AE0  6E49               	movwf	(scan@j_736+1)^0,c
  1423   000AE2  0E00               	movlw	0
  1424   000AE4  6E48               	movwf	scan@j_736^0,c
  1425   000AE6                     l2647:
  1426                           
  1427                           ;main.c: 452:             for(int j = 0; j < 5; j++){
  1428   000AE6  C046  F026         	movff	scan@i_735,___wmul@multiplier
  1429   000AEA  C047  F027         	movff	scan@i_735+1,___wmul@multiplier+1
  1430   000AEE  0EFF               	movlw	255
  1431   000AF0  6E29               	movwf	(___wmul@multiplicand+1)^0,c
  1432   000AF2  0EF6               	movlw	246
  1433   000AF4  6E28               	movwf	___wmul@multiplicand^0,c
  1434   000AF6  ECF8  F00F         	call	___wmul	;wreg free
  1435   000AFA  C048  F034         	movff	scan@j_736,??_scan
  1436   000AFE  C049  F035         	movff	scan@j_736+1,??_scan+1
  1437   000B02  90D8               	bcf	status,0,c
  1438   000B04  3634               	rlcf	??_scan^0,f,c
  1439   000B06  3635               	rlcf	(??_scan+1)^0,f,c
  1440   000B08  0EA8               	movlw	low (_plane+40)
  1441   000B0A  2434               	addwf	??_scan^0,w,c
  1442   000B0C  6E36               	movwf	(??_scan+2)^0,c
  1443   000B0E  0E00               	movlw	high (_plane+40)
  1444   000B10  2035               	addwfc	(??_scan+1)^0,w,c
  1445   000B12  6E37               	movwf	(??_scan+3)^0,c
  1446   000B14  5026               	movf	?___wmul^0,w,c
  1447   000B16  2436               	addwf	(??_scan+2)^0,w,c
  1448   000B18  6ED9               	movwf	fsr2l,c
  1449   000B1A  5027               	movf	(?___wmul+1)^0,w,c
  1450   000B1C  2037               	addwfc	(??_scan+3)^0,w,c
  1451   000B1E  6EDA               	movwf	fsr2h,c
  1452   000B20  0E01               	movlw	1
  1453   000B22  6EDE               	movwf	postinc2,c
  1454   000B24  0E00               	movlw	0
  1455   000B26  6EDD               	movwf	postdec2,c
  1456   000B28                     
  1457                           ;main.c: 453:                 plane[j][4-i] = 1;
  1458   000B28  4A48               	infsnz	scan@j_736^0,f,c
  1459   000B2A  2A49               	incf	(scan@j_736+1)^0,f,c
  1460   000B2C  BE49               	btfsc	(scan@j_736+1)^0,7,c
  1461   000B2E  EFA2  F005         	goto	u2801
  1462   000B32  5049               	movf	(scan@j_736+1)^0,w,c
  1463   000B34  E109               	bnz	u2800
  1464   000B36  0E05               	movlw	5
  1465   000B38  5C48               	subwf	scan@j_736^0,w,c
  1466   000B3A  A0D8               	btfss	status,0,c
  1467   000B3C  EFA2  F005         	goto	u2801
  1468   000B40  EFA4  F005         	goto	u2800
  1469   000B44                     u2801:
  1470   000B44  EF73  F005         	goto	l2647
  1471   000B48                     u2800:
  1472   000B48                     
  1473                           ;main.c: 454:             }
  1474   000B48  EC68  F00B         	call	_draw_plane	;wreg free
  1475   000B4C                     
  1476                           ;main.c: 455:             draw_plane();
  1477   000B4C  0E0B               	movlw	11
  1478   000B4E  6E34               	movwf	??_scan^0,c
  1479   000B50  0E62               	movlw	98
  1480   000B52                     u3107:
  1481   000B52  2EE8               	decfsz	wreg,f,c
  1482   000B54  D7FE               	bra	u3107
  1483   000B56  2E34               	decfsz	??_scan^0,f,c
  1484   000B58  D7FC               	bra	u3107
  1485   000B5A  D000               	nop2	
  1486   000B5C                     
  1487                           ;main.c: 456:             _delay((unsigned long)((8)*(4000000/4000.0)));
  1488   000B5C  4A46               	infsnz	scan@i_735^0,f,c
  1489   000B5E  2A47               	incf	(scan@i_735+1)^0,f,c
  1490   000B60  BE47               	btfsc	(scan@i_735+1)^0,7,c
  1491   000B62  EFBC  F005         	goto	u2811
  1492   000B66  5047               	movf	(scan@i_735+1)^0,w,c
  1493   000B68  E109               	bnz	u2810
  1494   000B6A  0E04               	movlw	4
  1495   000B6C  5C46               	subwf	scan@i_735^0,w,c
  1496   000B6E  A0D8               	btfss	status,0,c
  1497   000B70  EFBC  F005         	goto	u2811
  1498   000B74  EFBE  F005         	goto	u2810
  1499   000B78                     u2811:
  1500   000B78  EF6D  F005         	goto	l2639
  1501   000B7C                     u2810:
  1502   000B7C                     
  1503                           ;main.c: 458:     }
  1504   000B7C  0E00               	movlw	0
  1505   000B7E  6E4B               	movwf	(scan@i_737+1)^0,c
  1506   000B80  0E00               	movlw	0
  1507   000B82  6E4A               	movwf	scan@i_737^0,c
  1508   000B84                     l2667:
  1509                           
  1510                           ;main.c: 459: }
  1511   000B84  EC78  F00E         	call	_clear_plane	;wreg free
  1512   000B88                     
  1513                           ;main.c: 460: 
  1514   000B88  0E00               	movlw	0
  1515   000B8A  6E4D               	movwf	(scan@j_738+1)^0,c
  1516   000B8C  0E00               	movlw	0
  1517   000B8E  6E4C               	movwf	scan@j_738^0,c
  1518   000B90                     l2675:
  1519                           
  1520                           ;main.c: 461: void speedup(int id){
  1521   000B90  C04C  F026         	movff	scan@j_738,___wmul@multiplier
  1522   000B94  C04D  F027         	movff	scan@j_738+1,___wmul@multiplier+1
  1523   000B98  0E00               	movlw	0
  1524   000B9A  6E29               	movwf	(___wmul@multiplicand+1)^0,c
  1525   000B9C  0E0A               	movlw	10
  1526   000B9E  6E28               	movwf	___wmul@multiplicand^0,c
  1527   000BA0  ECF8  F00F         	call	___wmul	;wreg free
  1528   000BA4  0E80               	movlw	low _plane
  1529   000BA6  2426               	addwf	?___wmul^0,w,c
  1530   000BA8  6E34               	movwf	??_scan^0,c
  1531   000BAA  0E00               	movlw	high _plane
  1532   000BAC  2027               	addwfc	(?___wmul+1)^0,w,c
  1533   000BAE  6E35               	movwf	(??_scan+1)^0,c
  1534   000BB0  90D8               	bcf	status,0,c
  1535   000BB2  344A               	rlcf	scan@i_737^0,w,c
  1536   000BB4  6ED9               	movwf	fsr2l,c
  1537   000BB6  344B               	rlcf	(scan@i_737+1)^0,w,c
  1538   000BB8  6EDA               	movwf	fsr2h,c
  1539   000BBA  5034               	movf	??_scan^0,w,c
  1540   000BBC  26D9               	addwf	fsr2l,f,c
  1541   000BBE  5035               	movf	(??_scan+1)^0,w,c
  1542   000BC0  22DA               	addwfc	fsr2h,f,c
  1543   000BC2  0E01               	movlw	1
  1544   000BC4  6EDE               	movwf	postinc2,c
  1545   000BC6  0E00               	movlw	0
  1546   000BC8  6EDD               	movwf	postdec2,c
  1547   000BCA                     
  1548                           ;main.c: 462:     clear_cube();
  1549   000BCA  4A4C               	infsnz	scan@j_738^0,f,c
  1550   000BCC  2A4D               	incf	(scan@j_738+1)^0,f,c
  1551   000BCE  BE4D               	btfsc	(scan@j_738+1)^0,7,c
  1552   000BD0  EFF3  F005         	goto	u2821
  1553   000BD4  504D               	movf	(scan@j_738+1)^0,w,c
  1554   000BD6  E109               	bnz	u2820
  1555   000BD8  0E05               	movlw	5
  1556   000BDA  5C4C               	subwf	scan@j_738^0,w,c
  1557   000BDC  A0D8               	btfss	status,0,c
  1558   000BDE  EFF3  F005         	goto	u2821
  1559   000BE2  EFF5  F005         	goto	u2820
  1560   000BE6                     u2821:
  1561   000BE6  EFC8  F005         	goto	l2675
  1562   000BEA                     u2820:
  1563   000BEA                     
  1564                           ;main.c: 463:     int i = 0, dcnt = 0, del = 50;
  1565   000BEA  EC68  F00B         	call	_draw_plane	;wreg free
  1566   000BEE                     
  1567                           ;main.c: 464:     plane[0][0] = 1;
  1568   000BEE  0E0B               	movlw	11
  1569   000BF0  6E34               	movwf	??_scan^0,c
  1570   000BF2  0E62               	movlw	98
  1571   000BF4                     u3117:
  1572   000BF4  2EE8               	decfsz	wreg,f,c
  1573   000BF6  D7FE               	bra	u3117
  1574   000BF8  2E34               	decfsz	??_scan^0,f,c
  1575   000BFA  D7FC               	bra	u3117
  1576   000BFC  D000               	nop2	
  1577   000BFE                     
  1578                           ;main.c: 465:     plane[0][4] = 1;
  1579   000BFE  4A4A               	infsnz	scan@i_737^0,f,c
  1580   000C00  2A4B               	incf	(scan@i_737+1)^0,f,c
  1581   000C02  BE4B               	btfsc	(scan@i_737+1)^0,7,c
  1582   000C04  EF0D  F006         	goto	u2831
  1583   000C08  504B               	movf	(scan@i_737+1)^0,w,c
  1584   000C0A  E109               	bnz	u2830
  1585   000C0C  0E05               	movlw	5
  1586   000C0E  5C4A               	subwf	scan@i_737^0,w,c
  1587   000C10  A0D8               	btfss	status,0,c
  1588   000C12  EF0D  F006         	goto	u2831
  1589   000C16  EF0F  F006         	goto	u2830
  1590   000C1A                     u2831:
  1591   000C1A  EFC2  F005         	goto	l2667
  1592   000C1E                     u2830:
  1593   000C1E                     
  1594                           ;main.c: 466:     plane[4][0] = 1;
  1595   000C1E  0E00               	movlw	0
  1596   000C20  6E4F               	movwf	(scan@i_739+1)^0,c
  1597   000C22  0E00               	movlw	0
  1598   000C24  6E4E               	movwf	scan@i_739^0,c
  1599   000C26                     l2691:
  1600   000C26  BE4F               	btfsc	(scan@i_739+1)^0,7,c
  1601   000C28  EF1F  F006         	goto	u2841
  1602   000C2C  504F               	movf	(scan@i_739+1)^0,w,c
  1603   000C2E  E109               	bnz	u2840
  1604   000C30  0E04               	movlw	4
  1605   000C32  5C4E               	subwf	scan@i_739^0,w,c
  1606   000C34  A0D8               	btfss	status,0,c
  1607   000C36  EF1F  F006         	goto	u2841
  1608   000C3A  EF21  F006         	goto	u2840
  1609   000C3E                     u2841:
  1610   000C3E  EF23  F006         	goto	l2695
  1611   000C42                     u2840:
  1612   000C42  EF70  F006         	goto	l2717
  1613   000C46                     l2695:
  1614                           
  1615                           ;main.c: 467:     plane[4][4] = 1;
  1616   000C46  EC78  F00E         	call	_clear_plane	;wreg free
  1617   000C4A                     
  1618                           ;main.c: 468:     while(mode == id){
  1619   000C4A  0E00               	movlw	0
  1620   000C4C  6E51               	movwf	(scan@j_740+1)^0,c
  1621   000C4E  0E00               	movlw	0
  1622   000C50  6E50               	movwf	scan@j_740^0,c
  1623   000C52                     l2699:
  1624   000C52  BE51               	btfsc	(scan@j_740+1)^0,7,c
  1625   000C54  EF35  F006         	goto	u2851
  1626   000C58  5051               	movf	(scan@j_740+1)^0,w,c
  1627   000C5A  E109               	bnz	u2850
  1628   000C5C  0E05               	movlw	5
  1629   000C5E  5C50               	subwf	scan@j_740^0,w,c
  1630   000C60  A0D8               	btfss	status,0,c
  1631   000C62  EF35  F006         	goto	u2851
  1632   000C66  EF37  F006         	goto	u2850
  1633   000C6A                     u2851:
  1634   000C6A  EF39  F006         	goto	l2703
  1635   000C6E                     u2850:
  1636   000C6E  EF62  F006         	goto	l2709
  1637   000C72                     l2703:
  1638                           
  1639                           ;main.c: 469:         if(i == 0 || i == 4){
  1640   000C72  0E04               	movlw	4
  1641   000C74  6E34               	movwf	??_scan^0,c
  1642   000C76  0E00               	movlw	0
  1643   000C78  6E35               	movwf	(??_scan+1)^0,c
  1644   000C7A  504E               	movf	scan@i_739^0,w,c
  1645   000C7C  5E34               	subwf	??_scan^0,f,c
  1646   000C7E  504F               	movf	(scan@i_739+1)^0,w,c
  1647   000C80  5A35               	subwfb	(??_scan+1)^0,f,c
  1648   000C82  90D8               	bcf	status,0,c
  1649   000C84  3634               	rlcf	??_scan^0,f,c
  1650   000C86  3635               	rlcf	(??_scan+1)^0,f,c
  1651   000C88  C050  F026         	movff	scan@j_740,___wmul@multiplier
  1652   000C8C  C051  F027         	movff	scan@j_740+1,___wmul@multiplier+1
  1653   000C90  0E00               	movlw	0
  1654   000C92  6E29               	movwf	(___wmul@multiplicand+1)^0,c
  1655   000C94  0E0A               	movlw	10
  1656   000C96  6E28               	movwf	___wmul@multiplicand^0,c
  1657   000C98  ECF8  F00F         	call	___wmul	;wreg free
  1658   000C9C  0E80               	movlw	low _plane
  1659   000C9E  2426               	addwf	?___wmul^0,w,c
  1660   000CA0  6E36               	movwf	(??_scan+2)^0,c
  1661   000CA2  0E00               	movlw	high _plane
  1662   000CA4  2027               	addwfc	(?___wmul+1)^0,w,c
  1663   000CA6  6E37               	movwf	(??_scan+3)^0,c
  1664   000CA8  5034               	movf	??_scan^0,w,c
  1665   000CAA  2436               	addwf	(??_scan+2)^0,w,c
  1666   000CAC  6ED9               	movwf	fsr2l,c
  1667   000CAE  5035               	movf	(??_scan+1)^0,w,c
  1668   000CB0  2037               	addwfc	(??_scan+3)^0,w,c
  1669   000CB2  6EDA               	movwf	fsr2h,c
  1670   000CB4  0E01               	movlw	1
  1671   000CB6  6EDE               	movwf	postinc2,c
  1672   000CB8  0E00               	movlw	0
  1673   000CBA  6EDD               	movwf	postdec2,c
  1674   000CBC                     
  1675                           ;main.c: 470:             for(int j = 1; j < 4; j++){
  1676   000CBC  4A50               	infsnz	scan@j_740^0,f,c
  1677   000CBE  2A51               	incf	(scan@j_740+1)^0,f,c
  1678   000CC0  EF29  F006         	goto	l2699
  1679   000CC4                     l2709:
  1680                           
  1681                           ;main.c: 471:                 plane[j][0] = 1;
  1682   000CC4  EC68  F00B         	call	_draw_plane	;wreg free
  1683   000CC8                     
  1684                           ;main.c: 472:                 plane[j][4] = 1;
  1685   000CC8  0E0B               	movlw	11
  1686   000CCA  6E34               	movwf	??_scan^0,c
  1687   000CCC  0E62               	movlw	98
  1688   000CCE                     u3127:
  1689   000CCE  2EE8               	decfsz	wreg,f,c
  1690   000CD0  D7FE               	bra	u3127
  1691   000CD2  2E34               	decfsz	??_scan^0,f,c
  1692   000CD4  D7FC               	bra	u3127
  1693   000CD6  D000               	nop2	
  1694   000CD8                     
  1695                           ;main.c: 473:                 plane[0][j] = 1;
  1696   000CD8  4A4E               	infsnz	scan@i_739^0,f,c
  1697   000CDA  2A4F               	incf	(scan@i_739+1)^0,f,c
  1698   000CDC  EF13  F006         	goto	l2691
  1699   000CE0                     l2717:
  1700                           
  1701                           ;main.c: 423:             plane_on(i);
  1702   000CE0  5032               	movf	scan@id^0,w,c
  1703   000CE2  1854               	xorwf	_mode^0,w,c
  1704   000CE4  E109               	bnz	u2860
  1705   000CE6  5033               	movf	(scan@id+1)^0,w,c
  1706   000CE8  1855               	xorwf	(_mode+1)^0,w,c
  1707   000CEA  B4D8               	btfsc	status,2,c
  1708   000CEC  EF7A  F006         	goto	u2861
  1709   000CF0  EF7C  F006         	goto	u2860
  1710   000CF4                     u2861:
  1711   000CF4  EF6D  F004         	goto	l2543
  1712   000CF8                     u2860:
  1713   000CF8  0012               	return		;funcret
  1714   000CFA                     __end_of_scan:
  1715                           	callstack 0
  1716                           
  1717 ;; *************** function _random_pattern *****************
  1718 ;; Defined at:
  1719 ;;		line 167 in file "main.c"
  1720 ;; Parameters:    Size  Location     Type
  1721 ;;  id              2   49[COMRAM] int 
  1722 ;; Auto vars:     Size  Location     Type
  1723 ;;  r               2   65[COMRAM] int 
  1724 ;;  x               2   63[COMRAM] int 
  1725 ;;  prevx           2   61[COMRAM] int 
  1726 ;;  prevr           2   59[COMRAM] int 
  1727 ;; Return value:  Size  Location     Type
  1728 ;;                  1    wreg      void 
  1729 ;; Registers used:
  1730 ;;		wreg, fsr2l, fsr2h, status,2, status,0, prodl, prodh, cstack
  1731 ;; Tracked objects:
  1732 ;;		On entry : 0/0
  1733 ;;		On exit  : 0/0
  1734 ;;		Unchanged: 0/0
  1735 ;; Data sizes:     COMRAM   BANK0   BANK1   BANK2   BANK3   BANK4   BANK5
  1736 ;;      Params:         2       0       0       0       0       0       0
  1737 ;;      Locals:         8       0       0       0       0       0       0
  1738 ;;      Temps:          8       0       0       0       0       0       0
  1739 ;;      Totals:        18       0       0       0       0       0       0
  1740 ;;Total ram usage:       18 bytes
  1741 ;; Hardware stack levels used: 1
  1742 ;; Hardware stack levels required when called: 4
  1743 ;; This function calls:
  1744 ;;		___awmod
  1745 ;;		_clear_plane
  1746 ;;		_lighton
  1747 ;;		_move
  1748 ;;		_rand
  1749 ;;		_srand
  1750 ;;		_time
  1751 ;; This function is called by:
  1752 ;;		_main
  1753 ;; This function uses a non-reentrant model
  1754 ;;
  1755                           
  1756                           	psect	text3
  1757   000FDE                     __ptext3:
  1758                           	callstack 0
  1759   000FDE                     _random_pattern:
  1760                           	callstack 26
  1761   000FDE                     
  1762                           ;main.c: 168:         x=move(x,r);
  1763   000FDE  EC78  F00E         	call	_clear_plane	;wreg free
  1764   000FE2                     
  1765                           ;main.c: 169:         lighton(x,prevx);
  1766   000FE2  0E00               	movlw	0
  1767   000FE4  6E06               	movwf	time@t^0,c
  1768   000FE6  0E00               	movlw	0
  1769   000FE8  6E07               	movwf	(time@t+1)^0,c
  1770   000FEA  ECBF  F00F         	call	_time	;wreg free
  1771   000FEE  C006  F034         	movff	?_time,??_random_pattern
  1772   000FF2  C007  F035         	movff	?_time+1,??_random_pattern+1
  1773   000FF6  C008  F036         	movff	?_time+2,??_random_pattern+2
  1774   000FFA  C009  F037         	movff	?_time+3,??_random_pattern+3
  1775   000FFE  C00A  F038         	movff	?_time+4,??_random_pattern+4
  1776   001002  C00B  F039         	movff	?_time+5,??_random_pattern+5
  1777   001006  C00C  F03A         	movff	?_time+6,??_random_pattern+6
  1778   00100A  C00D  F03B         	movff	?_time+7,??_random_pattern+7
  1779   00100E  C034  F00E         	movff	??_random_pattern,srand@s
  1780   001012  C035  F00F         	movff	??_random_pattern+1,srand@s+1
  1781   001016  EC0B  F010         	call	_srand	;wreg free
  1782   00101A                     
  1783                           ;main.c: 170:         prevx = x;
  1784   00101A  0E00               	movlw	0
  1785   00101C  6E41               	movwf	(random_pattern@x+1)^0,c
  1786   00101E  0E00               	movlw	0
  1787   001020  6E40               	movwf	random_pattern@x^0,c
  1788   001022                     
  1789                           ;main.c: 171:         _delay((unsigned long)((2)*(4000000/4000.0)));
  1790   001022  0E00               	movlw	0
  1791   001024  6E2D               	movwf	(lighton@x+1)^0,c
  1792   001026  0E00               	movlw	0
  1793   001028  6E2C               	movwf	lighton@x^0,c
  1794   00102A  0EFF               	movlw	255
  1795   00102C  6E2F               	movwf	(lighton@prev+1)^0,c
  1796   00102E  682E               	setf	lighton@prev^0,c
  1797   001030  ECFF  F00B         	call	_lighton	;wreg free
  1798   001034                     
  1799                           ;main.c: 172:     }
  1800   001034  EC00  F00F         	call	_rand	;wreg free
  1801   001038  C012  F018         	movff	?_rand,___awmod@dividend
  1802   00103C  C013  F019         	movff	?_rand+1,___awmod@dividend+1
  1803   001040  0E00               	movlw	0
  1804   001042  6E1B               	movwf	(___awmod@divisor+1)^0,c
  1805   001044  0E06               	movlw	6
  1806   001046  6E1A               	movwf	___awmod@divisor^0,c
  1807   001048  ECCB  F00D         	call	___awmod	;wreg free
  1808   00104C  C018  F042         	movff	?___awmod,random_pattern@r
  1809   001050  C019  F043         	movff	?___awmod+1,random_pattern@r+1
  1810   001054                     
  1811                           ;main.c: 173: }
  1812   001054  0E00               	movlw	0
  1813   001056  6E3F               	movwf	(random_pattern@prevx+1)^0,c
  1814   001058  0E00               	movlw	0
  1815   00105A  6E3E               	movwf	random_pattern@prevx^0,c
  1816   00105C                     
  1817                           ;main.c: 174: 
  1818   00105C  C040  F01E         	movff	random_pattern@x,move@x
  1819   001060  C041  F01F         	movff	random_pattern@x+1,move@x+1
  1820   001064  C042  F020         	movff	random_pattern@r,move@r
  1821   001068  C043  F021         	movff	random_pattern@r+1,move@r+1
  1822   00106C  EC58  F00A         	call	_move	;wreg free
  1823   001070  C01E  F040         	movff	?_move,random_pattern@x
  1824   001074  C01F  F041         	movff	?_move+1,random_pattern@x+1
  1825   001078                     
  1826                           ;main.c: 175: void slash(int id){
  1827   001078  C040  F02C         	movff	random_pattern@x,lighton@x
  1828   00107C  C041  F02D         	movff	random_pattern@x+1,lighton@x+1
  1829   001080  0E00               	movlw	0
  1830   001082  6E2F               	movwf	(lighton@prev+1)^0,c
  1831   001084  0E00               	movlw	0
  1832   001086  6E2E               	movwf	lighton@prev^0,c
  1833   001088  ECFF  F00B         	call	_lighton	;wreg free
  1834   00108C                     l2291:
  1835                           
  1836                           ;main.c: 176:     clear_cube();
  1837   00108C  0E03               	movlw	3
  1838   00108E  6E34               	movwf	??_random_pattern^0,c
  1839   001090  0E98               	movlw	152
  1840   001092                     u3137:
  1841   001092  2EE8               	decfsz	wreg,f,c
  1842   001094  D7FE               	bra	u3137
  1843   001096  2E34               	decfsz	??_random_pattern^0,f,c
  1844   001098  D7FC               	bra	u3137
  1845                           
  1846                           ;main.c: 177:     int x = 0;
  1847   00109A  EF24  F009         	goto	l2327
  1848   00109E                     l136:
  1849                           
  1850                           ;main.c: 178:     plane[0][0] = 1;
  1851   00109E  C042  F03C         	movff	random_pattern@r,random_pattern@prevr
  1852   0010A2  C043  F03D         	movff	random_pattern@r+1,random_pattern@prevr+1
  1853   0010A6                     
  1854                           ;main.c: 179:     while(mode == id){
  1855   0010A6  EC00  F00F         	call	_rand	;wreg free
  1856   0010AA  C012  F018         	movff	?_rand,___awmod@dividend
  1857   0010AE  C013  F019         	movff	?_rand+1,___awmod@dividend+1
  1858   0010B2  0E00               	movlw	0
  1859   0010B4  6E1B               	movwf	(___awmod@divisor+1)^0,c
  1860   0010B6  0E06               	movlw	6
  1861   0010B8  6E1A               	movwf	___awmod@divisor^0,c
  1862   0010BA  ECCB  F00D         	call	___awmod	;wreg free
  1863   0010BE  C018  F042         	movff	?___awmod,random_pattern@r
  1864   0010C2  C019  F043         	movff	?___awmod+1,random_pattern@r+1
  1865   0010C6                     
  1866                           ;main.c: 180:         plane[x][x] = 0;
  1867   0010C6  5042               	movf	random_pattern@r^0,w,c
  1868   0010C8  1043               	iorwf	(random_pattern@r+1)^0,w,c
  1869   0010CA  B4D8               	btfsc	status,2,c
  1870   0010CC  EF6A  F008         	goto	u2121
  1871   0010D0  EF6C  F008         	goto	u2120
  1872   0010D4                     u2121:
  1873   0010D4  EF87  F008         	goto	l2301
  1874   0010D8                     u2120:
  1875   0010D8  0442               	decf	random_pattern@r^0,w,c
  1876   0010DA  1043               	iorwf	(random_pattern@r+1)^0,w,c
  1877   0010DC  A4D8               	btfss	status,2,c
  1878   0010DE  EF73  F008         	goto	u2131
  1879   0010E2  EF75  F008         	goto	u2130
  1880   0010E6                     u2131:
  1881   0010E6  EF98  F008         	goto	l2303
  1882   0010EA                     u2130:
  1883   0010EA  EF87  F008         	goto	l2301
  1884   0010EE                     l2299:
  1885   0010EE  EC00  F00F         	call	_rand	;wreg free
  1886   0010F2  C012  F018         	movff	?_rand,___awmod@dividend
  1887   0010F6  C013  F019         	movff	?_rand+1,___awmod@dividend+1
  1888   0010FA  0E00               	movlw	0
  1889   0010FC  6E1B               	movwf	(___awmod@divisor+1)^0,c
  1890   0010FE  0E06               	movlw	6
  1891   001100  6E1A               	movwf	___awmod@divisor^0,c
  1892   001102  ECCB  F00D         	call	___awmod	;wreg free
  1893   001106  C018  F042         	movff	?___awmod,random_pattern@r
  1894   00110A  C019  F043         	movff	?___awmod+1,random_pattern@r+1
  1895   00110E                     l2301:
  1896   00110E  5042               	movf	random_pattern@r^0,w,c
  1897   001110  243C               	addwf	random_pattern@prevr^0,w,c
  1898   001112  6E34               	movwf	??_random_pattern^0,c
  1899   001114  5043               	movf	(random_pattern@r+1)^0,w,c
  1900   001116  203D               	addwfc	(random_pattern@prevr+1)^0,w,c
  1901   001118  6E35               	movwf	(??_random_pattern+1)^0,c
  1902   00111A  0434               	decf	??_random_pattern^0,w,c
  1903   00111C  1035               	iorwf	(??_random_pattern+1)^0,w,c
  1904   00111E  B4D8               	btfsc	status,2,c
  1905   001120  EF94  F008         	goto	u2141
  1906   001124  EF96  F008         	goto	u2140
  1907   001128                     u2141:
  1908   001128  EF77  F008         	goto	l2299
  1909   00112C                     u2140:
  1910   00112C  EF06  F009         	goto	l2319
  1911   001130                     l2303:
  1912   001130  0E02               	movlw	2
  1913   001132  1842               	xorwf	random_pattern@r^0,w,c
  1914   001134  1043               	iorwf	(random_pattern@r+1)^0,w,c
  1915   001136  B4D8               	btfsc	status,2,c
  1916   001138  EFA0  F008         	goto	u2151
  1917   00113C  EFA2  F008         	goto	u2150
  1918   001140                     u2151:
  1919   001140  EFBE  F008         	goto	l2309
  1920   001144                     u2150:
  1921   001144  0E03               	movlw	3
  1922   001146  1842               	xorwf	random_pattern@r^0,w,c
  1923   001148  1043               	iorwf	(random_pattern@r+1)^0,w,c
  1924   00114A  A4D8               	btfss	status,2,c
  1925   00114C  EFAA  F008         	goto	u2161
  1926   001150  EFAC  F008         	goto	u2160
  1927   001154                     u2161:
  1928   001154  EFD0  F008         	goto	l2311
  1929   001158                     u2160:
  1930   001158  EFBE  F008         	goto	l2309
  1931   00115C                     l2307:
  1932   00115C  EC00  F00F         	call	_rand	;wreg free
  1933   001160  C012  F018         	movff	?_rand,___awmod@dividend
  1934   001164  C013  F019         	movff	?_rand+1,___awmod@dividend+1
  1935   001168  0E00               	movlw	0
  1936   00116A  6E1B               	movwf	(___awmod@divisor+1)^0,c
  1937   00116C  0E06               	movlw	6
  1938   00116E  6E1A               	movwf	___awmod@divisor^0,c
  1939   001170  ECCB  F00D         	call	___awmod	;wreg free
  1940   001174  C018  F042         	movff	?___awmod,random_pattern@r
  1941   001178  C019  F043         	movff	?___awmod+1,random_pattern@r+1
  1942   00117C                     l2309:
  1943   00117C  5042               	movf	random_pattern@r^0,w,c
  1944   00117E  243C               	addwf	random_pattern@prevr^0,w,c
  1945   001180  6E34               	movwf	??_random_pattern^0,c
  1946   001182  5043               	movf	(random_pattern@r+1)^0,w,c
  1947   001184  203D               	addwfc	(random_pattern@prevr+1)^0,w,c
  1948   001186  6E35               	movwf	(??_random_pattern+1)^0,c
  1949   001188  0E05               	movlw	5
  1950   00118A  1834               	xorwf	??_random_pattern^0,w,c
  1951   00118C  1035               	iorwf	(??_random_pattern+1)^0,w,c
  1952   00118E  B4D8               	btfsc	status,2,c
  1953   001190  EFCC  F008         	goto	u2171
  1954   001194  EFCE  F008         	goto	u2170
  1955   001198                     u2171:
  1956   001198  EFAE  F008         	goto	l2307
  1957   00119C                     u2170:
  1958   00119C  EF06  F009         	goto	l2319
  1959   0011A0                     l2311:
  1960   0011A0  0E04               	movlw	4
  1961   0011A2  1842               	xorwf	random_pattern@r^0,w,c
  1962   0011A4  1043               	iorwf	(random_pattern@r+1)^0,w,c
  1963   0011A6  B4D8               	btfsc	status,2,c
  1964   0011A8  EFD8  F008         	goto	u2181
  1965   0011AC  EFDA  F008         	goto	u2180
  1966   0011B0                     u2181:
  1967   0011B0  EFF6  F008         	goto	l2317
  1968   0011B4                     u2180:
  1969   0011B4  0E05               	movlw	5
  1970   0011B6  1842               	xorwf	random_pattern@r^0,w,c
  1971   0011B8  1043               	iorwf	(random_pattern@r+1)^0,w,c
  1972   0011BA  A4D8               	btfss	status,2,c
  1973   0011BC  EFE2  F008         	goto	u2191
  1974   0011C0  EFE4  F008         	goto	u2190
  1975   0011C4                     u2191:
  1976   0011C4  EF06  F009         	goto	l2319
  1977   0011C8                     u2190:
  1978   0011C8  EFF6  F008         	goto	l2317
  1979   0011CC                     l2315:
  1980   0011CC  EC00  F00F         	call	_rand	;wreg free
  1981   0011D0  C012  F018         	movff	?_rand,___awmod@dividend
  1982   0011D4  C013  F019         	movff	?_rand+1,___awmod@dividend+1
  1983   0011D8  0E00               	movlw	0
  1984   0011DA  6E1B               	movwf	(___awmod@divisor+1)^0,c
  1985   0011DC  0E06               	movlw	6
  1986   0011DE  6E1A               	movwf	___awmod@divisor^0,c
  1987   0011E0  ECCB  F00D         	call	___awmod	;wreg free
  1988   0011E4  C018  F042         	movff	?___awmod,random_pattern@r
  1989   0011E8  C019  F043         	movff	?___awmod+1,random_pattern@r+1
  1990   0011EC                     l2317:
  1991   0011EC  5042               	movf	random_pattern@r^0,w,c
  1992   0011EE  243C               	addwf	random_pattern@prevr^0,w,c
  1993   0011F0  6E34               	movwf	??_random_pattern^0,c
  1994   0011F2  5043               	movf	(random_pattern@r+1)^0,w,c
  1995   0011F4  203D               	addwfc	(random_pattern@prevr+1)^0,w,c
  1996   0011F6  6E35               	movwf	(??_random_pattern+1)^0,c
  1997   0011F8  0E09               	movlw	9
  1998   0011FA  1834               	xorwf	??_random_pattern^0,w,c
  1999   0011FC  1035               	iorwf	(??_random_pattern+1)^0,w,c
  2000   0011FE  B4D8               	btfsc	status,2,c
  2001   001200  EF04  F009         	goto	u2201
  2002   001204  EF06  F009         	goto	u2200
  2003   001208                     u2201:
  2004   001208  EFE6  F008         	goto	l2315
  2005   00120C                     u2200:
  2006   00120C                     l2319:
  2007                           
  2008                           ;main.c: 184:         plane[x][x] = 1;
  2009   00120C  C040  F01E         	movff	random_pattern@x,move@x
  2010   001210  C041  F01F         	movff	random_pattern@x+1,move@x+1
  2011   001214  C042  F020         	movff	random_pattern@r,move@r
  2012   001218  C043  F021         	movff	random_pattern@r+1,move@r+1
  2013   00121C  EC58  F00A         	call	_move	;wreg free
  2014   001220  C01E  F040         	movff	?_move,random_pattern@x
  2015   001224  C01F  F041         	movff	?_move+1,random_pattern@x+1
  2016   001228                     
  2017                           ;main.c: 185:         set_plane(x);
  2018   001228  C040  F02C         	movff	random_pattern@x,lighton@x
  2019   00122C  C041  F02D         	movff	random_pattern@x+1,lighton@x+1
  2020   001230  C03E  F02E         	movff	random_pattern@prevx,lighton@prev
  2021   001234  C03F  F02F         	movff	random_pattern@prevx+1,lighton@prev+1
  2022   001238  ECFF  F00B         	call	_lighton	;wreg free
  2023   00123C                     
  2024                           ;main.c: 186:         draw_plane();
  2025   00123C  C040  F03E         	movff	random_pattern@x,random_pattern@prevx
  2026   001240  C041  F03F         	movff	random_pattern@x+1,random_pattern@prevx+1
  2027   001244  EF46  F008         	goto	l2291
  2028   001248                     l2327:
  2029                           
  2030                           ;main.c: 177:     int x = 0;
  2031   001248  5032               	movf	random_pattern@id^0,w,c
  2032   00124A  1854               	xorwf	_mode^0,w,c
  2033   00124C  E109               	bnz	u2210
  2034   00124E  5033               	movf	(random_pattern@id+1)^0,w,c
  2035   001250  1855               	xorwf	(_mode+1)^0,w,c
  2036   001252  B4D8               	btfsc	status,2,c
  2037   001254  EF2E  F009         	goto	u2211
  2038   001258  EF30  F009         	goto	u2210
  2039   00125C                     u2211:
  2040   00125C  EF4F  F008         	goto	l136
  2041   001260                     u2210:
  2042   001260  0012               	return		;funcret
  2043   001262                     __end_of_random_pattern:
  2044                           	callstack 0
  2045                           
  2046 ;; *************** function _rand *****************
  2047 ;; Defined at:
  2048 ;;		line 11 in file "C:\Program Files\Microchip\xc8\v2.40\pic\sources\c99\common\rand.c"
  2049 ;; Parameters:    Size  Location     Type
  2050 ;;		None
  2051 ;; Auto vars:     Size  Location     Type
  2052 ;;		None
  2053 ;; Return value:  Size  Location     Type
  2054 ;;                  2   17[COMRAM] int 
  2055 ;; Registers used:
  2056 ;;		wreg, status,2, status,0, cstack
  2057 ;; Tracked objects:
  2058 ;;		On entry : 0/0
  2059 ;;		On exit  : 0/0
  2060 ;;		Unchanged: 0/0
  2061 ;; Data sizes:     COMRAM   BANK0   BANK1   BANK2   BANK3   BANK4   BANK5
  2062 ;;      Params:         2       0       0       0       0       0       0
  2063 ;;      Locals:         0       0       0       0       0       0       0
  2064 ;;      Temps:          4       0       0       0       0       0       0
  2065 ;;      Totals:         6       0       0       0       0       0       0
  2066 ;;Total ram usage:        6 bytes
  2067 ;; Hardware stack levels used: 1
  2068 ;; Hardware stack levels required when called: 2
  2069 ;; This function calls:
  2070 ;;		___lmul
  2071 ;; This function is called by:
  2072 ;;		_random_pattern
  2073 ;; This function uses a non-reentrant model
  2074 ;;
  2075                           
  2076                           	psect	text4
  2077   001E00                     __ptext4:
  2078                           	callstack 0
  2079   001E00                     _rand:
  2080                           	callstack 27
  2081   001E00  C056  F006         	movff	_seed,___lmul@multiplier
  2082   001E04  C057  F007         	movff	_seed+1,___lmul@multiplier+1
  2083   001E08  C058  F008         	movff	_seed+2,___lmul@multiplier+2
  2084   001E0C  C059  F009         	movff	_seed+3,___lmul@multiplier+3
  2085   001E10  0E2D               	movlw	45
  2086   001E12  6E0A               	movwf	___lmul@multiplicand^0,c
  2087   001E14  0E7F               	movlw	127
  2088   001E16  6E0B               	movwf	(___lmul@multiplicand+1)^0,c
  2089   001E18  0E95               	movlw	149
  2090   001E1A  6E0C               	movwf	(___lmul@multiplicand+2)^0,c
  2091   001E1C  0E4C               	movlw	76
  2092   001E1E  6E0D               	movwf	(___lmul@multiplicand+3)^0,c
  2093   001E20  EC36  F00F         	call	___lmul	;wreg free
  2094   001E24  0E01               	movlw	1
  2095   001E26  2406               	addwf	?___lmul^0,w,c
  2096   001E28  6E56               	movwf	_seed^0,c
  2097   001E2A  0E00               	movlw	0
  2098   001E2C  2007               	addwfc	(?___lmul+1)^0,w,c
  2099   001E2E  6E57               	movwf	(_seed+1)^0,c
  2100   001E30  0E00               	movlw	0
  2101   001E32  2008               	addwfc	(?___lmul+2)^0,w,c
  2102   001E34  6E58               	movwf	(_seed+2)^0,c
  2103   001E36  0E00               	movlw	0
  2104   001E38  2009               	addwfc	(?___lmul+3)^0,w,c
  2105   001E3A  6E59               	movwf	(_seed+3)^0,c
  2106   001E3C  C056  F014         	movff	_seed,??_rand
  2107   001E40  C057  F015         	movff	_seed+1,??_rand+1
  2108   001E44  C058  F016         	movff	_seed+2,??_rand+2
  2109   001E48  C059  F017         	movff	_seed+3,??_rand+3
  2110   001E4C  0E12               	movlw	18
  2111   001E4E  EF2E  F00F         	goto	u2110
  2112   001E52                     u2115:
  2113   001E52  90D8               	bcf	status,0,c
  2114   001E54  3217               	rrcf	(??_rand+3)^0,f,c
  2115   001E56  3216               	rrcf	(??_rand+2)^0,f,c
  2116   001E58  3215               	rrcf	(??_rand+1)^0,f,c
  2117   001E5A  3214               	rrcf	??_rand^0,f,c
  2118   001E5C                     u2110:
  2119   001E5C  2EE8               	decfsz	wreg,f,c
  2120   001E5E  EF29  F00F         	goto	u2115
  2121   001E62  C014  F012         	movff	??_rand,?_rand
  2122   001E66  C015  F013         	movff	??_rand+1,?_rand+1
  2123   001E6A  0012               	return		;funcret
  2124   001E6C                     __end_of_rand:
  2125                           	callstack 0
  2126                           
  2127 ;; *************** function ___lmul *****************
  2128 ;; Defined at:
  2129 ;;		line 15 in file "C:\Program Files\Microchip\xc8\v2.40\pic\sources\c99\common\Umul32.c"
  2130 ;; Parameters:    Size  Location     Type
  2131 ;;  multiplier      4    5[COMRAM] unsigned long 
  2132 ;;  multiplicand    4    9[COMRAM] unsigned long 
  2133 ;; Auto vars:     Size  Location     Type
  2134 ;;  product         4   13[COMRAM] unsigned long 
  2135 ;; Return value:  Size  Location     Type
  2136 ;;                  4    5[COMRAM] unsigned long 
  2137 ;; Registers used:
  2138 ;;		wreg, status,2, status,0
  2139 ;; Tracked objects:
  2140 ;;		On entry : 0/0
  2141 ;;		On exit  : 0/0
  2142 ;;		Unchanged: 0/0
  2143 ;; Data sizes:     COMRAM   BANK0   BANK1   BANK2   BANK3   BANK4   BANK5
  2144 ;;      Params:         8       0       0       0       0       0       0
  2145 ;;      Locals:         4       0       0       0       0       0       0
  2146 ;;      Temps:          0       0       0       0       0       0       0
  2147 ;;      Totals:        12       0       0       0       0       0       0
  2148 ;;Total ram usage:       12 bytes
  2149 ;; Hardware stack levels used: 1
  2150 ;; Hardware stack levels required when called: 1
  2151 ;; This function calls:
  2152 ;;		Nothing
  2153 ;; This function is called by:
  2154 ;;		_rand
  2155 ;; This function uses a non-reentrant model
  2156 ;;
  2157                           
  2158                           	psect	text5
  2159   001E6C                     __ptext5:
  2160                           	callstack 0
  2161   001E6C                     ___lmul:
  2162                           	callstack 27
  2163   001E6C  0E00               	movlw	0
  2164   001E6E  6E0E               	movwf	___lmul@product^0,c
  2165   001E70  0E00               	movlw	0
  2166   001E72  6E0F               	movwf	(___lmul@product+1)^0,c
  2167   001E74  0E00               	movlw	0
  2168   001E76  6E10               	movwf	(___lmul@product+2)^0,c
  2169   001E78  0E00               	movlw	0
  2170   001E7A  6E11               	movwf	(___lmul@product+3)^0,c
  2171   001E7C                     l2051:
  2172   001E7C  A006               	btfss	___lmul@multiplier^0,0,c
  2173   001E7E  EF43  F00F         	goto	u1791
  2174   001E82  EF45  F00F         	goto	u1790
  2175   001E86                     u1791:
  2176   001E86  EF4D  F00F         	goto	l2055
  2177   001E8A                     u1790:
  2178   001E8A  500A               	movf	___lmul@multiplicand^0,w,c
  2179   001E8C  260E               	addwf	___lmul@product^0,f,c
  2180   001E8E  500B               	movf	(___lmul@multiplicand+1)^0,w,c
  2181   001E90  220F               	addwfc	(___lmul@product+1)^0,f,c
  2182   001E92  500C               	movf	(___lmul@multiplicand+2)^0,w,c
  2183   001E94  2210               	addwfc	(___lmul@product+2)^0,f,c
  2184   001E96  500D               	movf	(___lmul@multiplicand+3)^0,w,c
  2185   001E98  2211               	addwfc	(___lmul@product+3)^0,f,c
  2186   001E9A                     l2055:
  2187   001E9A  90D8               	bcf	status,0,c
  2188   001E9C  360A               	rlcf	___lmul@multiplicand^0,f,c
  2189   001E9E  360B               	rlcf	(___lmul@multiplicand+1)^0,f,c
  2190   001EA0  360C               	rlcf	(___lmul@multiplicand+2)^0,f,c
  2191   001EA2  360D               	rlcf	(___lmul@multiplicand+3)^0,f,c
  2192   001EA4  90D8               	bcf	status,0,c
  2193   001EA6  3209               	rrcf	(___lmul@multiplier+3)^0,f,c
  2194   001EA8  3208               	rrcf	(___lmul@multiplier+2)^0,f,c
  2195   001EAA  3207               	rrcf	(___lmul@multiplier+1)^0,f,c
  2196   001EAC  3206               	rrcf	___lmul@multiplier^0,f,c
  2197   001EAE  5006               	movf	___lmul@multiplier^0,w,c
  2198   001EB0  1007               	iorwf	(___lmul@multiplier+1)^0,w,c
  2199   001EB2  1008               	iorwf	(___lmul@multiplier+2)^0,w,c
  2200   001EB4  1009               	iorwf	(___lmul@multiplier+3)^0,w,c
  2201   001EB6  A4D8               	btfss	status,2,c
  2202   001EB8  EF60  F00F         	goto	u1801
  2203   001EBC  EF62  F00F         	goto	u1800
  2204   001EC0                     u1801:
  2205   001EC0  EF3E  F00F         	goto	l2051
  2206   001EC4                     u1800:
  2207   001EC4  C00E  F006         	movff	___lmul@product,?___lmul
  2208   001EC8  C00F  F007         	movff	___lmul@product+1,?___lmul+1
  2209   001ECC  C010  F008         	movff	___lmul@product+2,?___lmul+2
  2210   001ED0  C011  F009         	movff	___lmul@product+3,?___lmul+3
  2211   001ED4  0012               	return		;funcret
  2212   001ED6                     __end_of___lmul:
  2213                           	callstack 0
  2214                           
  2215 ;; *************** function _move *****************
  2216 ;; Defined at:
  2217 ;;		line 157 in file "main.c"
  2218 ;; Parameters:    Size  Location     Type
  2219 ;;  x               2   29[COMRAM] int 
  2220 ;;  r               2   31[COMRAM] int 
  2221 ;; Auto vars:     Size  Location     Type
  2222 ;;		None
  2223 ;; Return value:  Size  Location     Type
  2224 ;;                  2   29[COMRAM] int 
  2225 ;; Registers used:
  2226 ;;		wreg, status,2, status,0, cstack
  2227 ;; Tracked objects:
  2228 ;;		On entry : 0/0
  2229 ;;		On exit  : 0/0
  2230 ;;		Unchanged: 0/0
  2231 ;; Data sizes:     COMRAM   BANK0   BANK1   BANK2   BANK3   BANK4   BANK5
  2232 ;;      Params:         4       0       0       0       0       0       0
  2233 ;;      Locals:         0       0       0       0       0       0       0
  2234 ;;      Temps:          0       0       0       0       0       0       0
  2235 ;;      Totals:         4       0       0       0       0       0       0
  2236 ;;Total ram usage:        4 bytes
  2237 ;; Hardware stack levels used: 1
  2238 ;; Hardware stack levels required when called: 2
  2239 ;; This function calls:
  2240 ;;		___awmod
  2241 ;; This function is called by:
  2242 ;;		_random_pattern
  2243 ;; This function uses a non-reentrant model
  2244 ;;
  2245                           
  2246                           	psect	text6
  2247   0014B0                     __ptext6:
  2248                           	callstack 0
  2249   0014B0                     _move:
  2250                           	callstack 27
  2251   0014B0                     
  2252                           ;main.c: 158:     x = move(x,r);
  2253   0014B0  5020               	movf	move@r^0,w,c
  2254   0014B2  1021               	iorwf	(move@r+1)^0,w,c
  2255   0014B4  A4D8               	btfss	status,2,c
  2256   0014B6  EF5F  F00A         	goto	u1981
  2257   0014BA  EF61  F00A         	goto	u1980
  2258   0014BE                     u1981:
  2259   0014BE  EF85  F00A         	goto	l2211
  2260   0014C2                     u1980:
  2261   0014C2  C01E  F018         	movff	move@x,___awmod@dividend
  2262   0014C6  C01F  F019         	movff	move@x+1,___awmod@dividend+1
  2263   0014CA  0E00               	movlw	0
  2264   0014CC  6E1B               	movwf	(___awmod@divisor+1)^0,c
  2265   0014CE  0E05               	movlw	5
  2266   0014D0  6E1A               	movwf	___awmod@divisor^0,c
  2267   0014D2  ECCB  F00D         	call	___awmod	;wreg free
  2268   0014D6  0E04               	movlw	4
  2269   0014D8  1818               	xorwf	?___awmod^0,w,c
  2270   0014DA  1019               	iorwf	(?___awmod+1)^0,w,c
  2271   0014DC  B4D8               	btfsc	status,2,c
  2272   0014DE  EF73  F00A         	goto	u1991
  2273   0014E2  EF75  F00A         	goto	u1990
  2274   0014E6                     u1991:
  2275   0014E6  EF7D  F00A         	goto	l2209
  2276   0014EA                     u1990:
  2277   0014EA  0E01               	movlw	1
  2278   0014EC  241E               	addwf	move@x^0,w,c
  2279   0014EE  6E1E               	movwf	move@x^0,c
  2280   0014F0  0E00               	movlw	0
  2281   0014F2  201F               	addwfc	(move@x+1)^0,w,c
  2282   0014F4  6E1F               	movwf	(move@x+1)^0,c
  2283   0014F6  EF63  F00B         	goto	l2251
  2284   0014FA                     l2209:
  2285   0014FA  0EFC               	movlw	252
  2286   0014FC  241E               	addwf	move@x^0,w,c
  2287   0014FE  6E1E               	movwf	move@x^0,c
  2288   001500  0EFF               	movlw	255
  2289   001502  201F               	addwfc	(move@x+1)^0,w,c
  2290   001504  6E1F               	movwf	(move@x+1)^0,c
  2291   001506  EF63  F00B         	goto	l2251
  2292   00150A                     l2211:
  2293   00150A  0420               	decf	move@r^0,w,c
  2294   00150C  1021               	iorwf	(move@r+1)^0,w,c
  2295   00150E  A4D8               	btfss	status,2,c
  2296   001510  EF8C  F00A         	goto	u2001
  2297   001514  EF8E  F00A         	goto	u2000
  2298   001518                     u2001:
  2299   001518  EFB1  F00A         	goto	l2219
  2300   00151C                     u2000:
  2301   00151C  C01E  F018         	movff	move@x,___awmod@dividend
  2302   001520  C01F  F019         	movff	move@x+1,___awmod@dividend+1
  2303   001524  0E00               	movlw	0
  2304   001526  6E1B               	movwf	(___awmod@divisor+1)^0,c
  2305   001528  0E05               	movlw	5
  2306   00152A  6E1A               	movwf	___awmod@divisor^0,c
  2307   00152C  ECCB  F00D         	call	___awmod	;wreg free
  2308   001530  5018               	movf	?___awmod^0,w,c
  2309   001532  1019               	iorwf	(?___awmod+1)^0,w,c
  2310   001534  B4D8               	btfsc	status,2,c
  2311   001536  EF9F  F00A         	goto	u2011
  2312   00153A  EFA1  F00A         	goto	u2010
  2313   00153E                     u2011:
  2314   00153E  EFA9  F00A         	goto	l2217
  2315   001542                     u2010:
  2316   001542  0EFF               	movlw	255
  2317   001544  241E               	addwf	move@x^0,w,c
  2318   001546  6E1E               	movwf	move@x^0,c
  2319   001548  0EFF               	movlw	255
  2320   00154A  201F               	addwfc	(move@x+1)^0,w,c
  2321   00154C  6E1F               	movwf	(move@x+1)^0,c
  2322   00154E  EF63  F00B         	goto	l2251
  2323   001552                     l2217:
  2324   001552  0E04               	movlw	4
  2325   001554  241E               	addwf	move@x^0,w,c
  2326   001556  6E1E               	movwf	move@x^0,c
  2327   001558  0E00               	movlw	0
  2328   00155A  201F               	addwfc	(move@x+1)^0,w,c
  2329   00155C  6E1F               	movwf	(move@x+1)^0,c
  2330   00155E  EF63  F00B         	goto	l2251
  2331   001562                     l2219:
  2332   001562  0E02               	movlw	2
  2333   001564  1820               	xorwf	move@r^0,w,c
  2334   001566  1021               	iorwf	(move@r+1)^0,w,c
  2335   001568  A4D8               	btfss	status,2,c
  2336   00156A  EFB9  F00A         	goto	u2021
  2337   00156E  EFBB  F00A         	goto	u2020
  2338   001572                     u2021:
  2339   001572  EFE3  F00A         	goto	l2227
  2340   001576                     u2020:
  2341   001576  C01E  F018         	movff	move@x,___awmod@dividend
  2342   00157A  C01F  F019         	movff	move@x+1,___awmod@dividend+1
  2343   00157E  0E00               	movlw	0
  2344   001580  6E1B               	movwf	(___awmod@divisor+1)^0,c
  2345   001582  0E19               	movlw	25
  2346   001584  6E1A               	movwf	___awmod@divisor^0,c
  2347   001586  ECCB  F00D         	call	___awmod	;wreg free
  2348   00158A  BE19               	btfsc	(?___awmod+1)^0,7,c
  2349   00158C  EFD3  F00A         	goto	u2030
  2350   001590  5019               	movf	(?___awmod+1)^0,w,c
  2351   001592  E107               	bnz	u2031
  2352   001594  0E14               	movlw	20
  2353   001596  5C18               	subwf	?___awmod^0,w,c
  2354   001598  B0D8               	btfsc	status,0,c
  2355   00159A  EFD1  F00A         	goto	u2031
  2356   00159E  EFD3  F00A         	goto	u2030
  2357   0015A2                     u2031:
  2358   0015A2  EFDB  F00A         	goto	l2225
  2359   0015A6                     u2030:
  2360   0015A6  0E05               	movlw	5
  2361   0015A8  241E               	addwf	move@x^0,w,c
  2362   0015AA  6E1E               	movwf	move@x^0,c
  2363   0015AC  0E00               	movlw	0
  2364   0015AE  201F               	addwfc	(move@x+1)^0,w,c
  2365   0015B0  6E1F               	movwf	(move@x+1)^0,c
  2366   0015B2  EF63  F00B         	goto	l2251
  2367   0015B6                     l2225:
  2368   0015B6  0EEC               	movlw	236
  2369   0015B8  241E               	addwf	move@x^0,w,c
  2370   0015BA  6E1E               	movwf	move@x^0,c
  2371   0015BC  0EFF               	movlw	255
  2372   0015BE  201F               	addwfc	(move@x+1)^0,w,c
  2373   0015C0  6E1F               	movwf	(move@x+1)^0,c
  2374   0015C2  EF63  F00B         	goto	l2251
  2375   0015C6                     l2227:
  2376   0015C6  0E03               	movlw	3
  2377   0015C8  1820               	xorwf	move@r^0,w,c
  2378   0015CA  1021               	iorwf	(move@r+1)^0,w,c
  2379   0015CC  A4D8               	btfss	status,2,c
  2380   0015CE  EFEB  F00A         	goto	u2041
  2381   0015D2  EFED  F00A         	goto	u2040
  2382   0015D6                     u2041:
  2383   0015D6  EF15  F00B         	goto	l2235
  2384   0015DA                     u2040:
  2385   0015DA  C01E  F018         	movff	move@x,___awmod@dividend
  2386   0015DE  C01F  F019         	movff	move@x+1,___awmod@dividend+1
  2387   0015E2  0E00               	movlw	0
  2388   0015E4  6E1B               	movwf	(___awmod@divisor+1)^0,c
  2389   0015E6  0E19               	movlw	25
  2390   0015E8  6E1A               	movwf	___awmod@divisor^0,c
  2391   0015EA  ECCB  F00D         	call	___awmod	;wreg free
  2392   0015EE  BE19               	btfsc	(?___awmod+1)^0,7,c
  2393   0015F0  EF03  F00B         	goto	u2051
  2394   0015F4  5019               	movf	(?___awmod+1)^0,w,c
  2395   0015F6  E109               	bnz	u2050
  2396   0015F8  0E05               	movlw	5
  2397   0015FA  5C18               	subwf	?___awmod^0,w,c
  2398   0015FC  A0D8               	btfss	status,0,c
  2399   0015FE  EF03  F00B         	goto	u2051
  2400   001602  EF05  F00B         	goto	u2050
  2401   001606                     u2051:
  2402   001606  EF0D  F00B         	goto	l2233
  2403   00160A                     u2050:
  2404   00160A  0EFB               	movlw	251
  2405   00160C  241E               	addwf	move@x^0,w,c
  2406   00160E  6E1E               	movwf	move@x^0,c
  2407   001610  0EFF               	movlw	255
  2408   001612  201F               	addwfc	(move@x+1)^0,w,c
  2409   001614  6E1F               	movwf	(move@x+1)^0,c
  2410   001616  EF63  F00B         	goto	l2251
  2411   00161A                     l2233:
  2412   00161A  0E14               	movlw	20
  2413   00161C  241E               	addwf	move@x^0,w,c
  2414   00161E  6E1E               	movwf	move@x^0,c
  2415   001620  0E00               	movlw	0
  2416   001622  201F               	addwfc	(move@x+1)^0,w,c
  2417   001624  6E1F               	movwf	(move@x+1)^0,c
  2418   001626  EF63  F00B         	goto	l2251
  2419   00162A                     l2235:
  2420   00162A  0E04               	movlw	4
  2421   00162C  1820               	xorwf	move@r^0,w,c
  2422   00162E  1021               	iorwf	(move@r+1)^0,w,c
  2423   001630  A4D8               	btfss	status,2,c
  2424   001632  EF1D  F00B         	goto	u2061
  2425   001636  EF1F  F00B         	goto	u2060
  2426   00163A                     u2061:
  2427   00163A  EF3D  F00B         	goto	l2243
  2428   00163E                     u2060:
  2429   00163E  BE1F               	btfsc	(move@x+1)^0,7,c
  2430   001640  EF2D  F00B         	goto	u2070
  2431   001644  501F               	movf	(move@x+1)^0,w,c
  2432   001646  E107               	bnz	u2071
  2433   001648  0E64               	movlw	100
  2434   00164A  5C1E               	subwf	move@x^0,w,c
  2435   00164C  B0D8               	btfsc	status,0,c
  2436   00164E  EF2B  F00B         	goto	u2071
  2437   001652  EF2D  F00B         	goto	u2070
  2438   001656                     u2071:
  2439   001656  EF35  F00B         	goto	l2241
  2440   00165A                     u2070:
  2441   00165A  0E19               	movlw	25
  2442   00165C  241E               	addwf	move@x^0,w,c
  2443   00165E  6E1E               	movwf	move@x^0,c
  2444   001660  0E00               	movlw	0
  2445   001662  201F               	addwfc	(move@x+1)^0,w,c
  2446   001664  6E1F               	movwf	(move@x+1)^0,c
  2447   001666  EF63  F00B         	goto	l2251
  2448   00166A                     l2241:
  2449   00166A  0E9C               	movlw	156
  2450   00166C  241E               	addwf	move@x^0,w,c
  2451   00166E  6E1E               	movwf	move@x^0,c
  2452   001670  0EFF               	movlw	255
  2453   001672  201F               	addwfc	(move@x+1)^0,w,c
  2454   001674  6E1F               	movwf	(move@x+1)^0,c
  2455   001676  EF63  F00B         	goto	l2251
  2456   00167A                     l2243:
  2457   00167A  0E05               	movlw	5
  2458   00167C  1820               	xorwf	move@r^0,w,c
  2459   00167E  1021               	iorwf	(move@r+1)^0,w,c
  2460   001680  A4D8               	btfss	status,2,c
  2461   001682  EF45  F00B         	goto	u2081
  2462   001686  EF47  F00B         	goto	u2080
  2463   00168A                     u2081:
  2464   00168A  EF63  F00B         	goto	l2251
  2465   00168E                     u2080:
  2466   00168E  BE1F               	btfsc	(move@x+1)^0,7,c
  2467   001690  EF53  F00B         	goto	u2091
  2468   001694  501F               	movf	(move@x+1)^0,w,c
  2469   001696  E109               	bnz	u2090
  2470   001698  0E19               	movlw	25
  2471   00169A  5C1E               	subwf	move@x^0,w,c
  2472   00169C  A0D8               	btfss	status,0,c
  2473   00169E  EF53  F00B         	goto	u2091
  2474   0016A2  EF55  F00B         	goto	u2090
  2475   0016A6                     u2091:
  2476   0016A6  EF5D  F00B         	goto	l2249
  2477   0016AA                     u2090:
  2478   0016AA  0EE7               	movlw	231
  2479   0016AC  241E               	addwf	move@x^0,w,c
  2480   0016AE  6E1E               	movwf	move@x^0,c
  2481   0016B0  0EFF               	movlw	255
  2482   0016B2  201F               	addwfc	(move@x+1)^0,w,c
  2483   0016B4  6E1F               	movwf	(move@x+1)^0,c
  2484   0016B6  EF63  F00B         	goto	l2251
  2485   0016BA                     l2249:
  2486   0016BA  0E64               	movlw	100
  2487   0016BC  241E               	addwf	move@x^0,w,c
  2488   0016BE  6E1E               	movwf	move@x^0,c
  2489   0016C0  0E00               	movlw	0
  2490   0016C2  201F               	addwfc	(move@x+1)^0,w,c
  2491   0016C4  6E1F               	movwf	(move@x+1)^0,c
  2492   0016C6                     l2251:
  2493                           
  2494                           ;main.c: 164:         if(r==0||r==1)while(prevr+r==1)r=rand()%6;
  2495   0016C6  C01E  F01E         	movff	move@x,?_move
  2496   0016CA  C01F  F01F         	movff	move@x+1,?_move+1
  2497   0016CE  0012               	return		;funcret
  2498   0016D0                     __end_of_move:
  2499                           	callstack 0
  2500                           
  2501 ;; *************** function _rainfall *****************
  2502 ;; Defined at:
  2503 ;;		line 206 in file "main.c"
  2504 ;; Parameters:    Size  Location     Type
  2505 ;;  id              2   49[COMRAM] int 
  2506 ;; Auto vars:     Size  Location     Type
  2507 ;;  cnt             2   58[COMRAM] int 
  2508 ;;  x               2   56[COMRAM] int 
  2509 ;;  itcnt           2   54[COMRAM] int 
  2510 ;;  it              2   52[COMRAM] int 
  2511 ;; Return value:  Size  Location     Type
  2512 ;;                  1    wreg      void 
  2513 ;; Registers used:
  2514 ;;		wreg, fsr2l, fsr2h, status,2, status,0, prodl, prodh, cstack
  2515 ;; Tracked objects:
  2516 ;;		On entry : 0/0
  2517 ;;		On exit  : 0/0
  2518 ;;		Unchanged: 0/0
  2519 ;; Data sizes:     COMRAM   BANK0   BANK1   BANK2   BANK3   BANK4   BANK5
  2520 ;;      Params:         2       0       0       0       0       0       0
  2521 ;;      Locals:         8       0       0       0       0       0       0
  2522 ;;      Temps:          1       0       0       0       0       0       0
  2523 ;;      Totals:        11       0       0       0       0       0       0
  2524 ;;Total ram usage:       11 bytes
  2525 ;; Hardware stack levels used: 1
  2526 ;; Hardware stack levels required when called: 3
  2527 ;; This function calls:
  2528 ;;		_clear_cube
  2529 ;;		_clear_plane
  2530 ;;		_draw_plane
  2531 ;;		_set_plane
  2532 ;; This function is called by:
  2533 ;;		_main
  2534 ;; This function uses a non-reentrant model
  2535 ;;
  2536                           
  2537                           	psect	text7
  2538   000012                     __ptext7:
  2539                           	callstack 0
  2540   000012                     _rainfall:
  2541                           	callstack 27
  2542   000012                     
  2543                           ;main.c: 207:                 plane[2][1] = 1;
  2544   000012  EC23  F00E         	call	_clear_cube	;wreg free
  2545   000016                     
  2546                           ;main.c: 208:                 plane[2][2] = 1;
  2547   000016  0E00               	movlw	0
  2548   000018  6E3A               	movwf	(rainfall@x+1)^0,c
  2549   00001A  0E00               	movlw	0
  2550   00001C  6E39               	movwf	rainfall@x^0,c
  2551   00001E  0E00               	movlw	0
  2552   000020  6E36               	movwf	(rainfall@it+1)^0,c
  2553   000022  0E05               	movlw	5
  2554   000024  6E35               	movwf	rainfall@it^0,c
  2555   000026  0E00               	movlw	0
  2556   000028  6E3C               	movwf	(rainfall@cnt+1)^0,c
  2557   00002A  0E00               	movlw	0
  2558   00002C  6E3B               	movwf	rainfall@cnt^0,c
  2559   00002E  0E00               	movlw	0
  2560   000030  6E38               	movwf	(rainfall@itcnt+1)^0,c
  2561   000032  0E00               	movlw	0
  2562   000034  6E37               	movwf	rainfall@itcnt^0,c
  2563                           
  2564                           ;main.c: 209:                 plane[2][3] = 1;
  2565   000036  EF5C  F004         	goto	l2539
  2566   00003A                     l2339:
  2567                           
  2568                           ;main.c: 210:                 plane[2][4] = 1;
  2569   00003A  EC78  F00E         	call	_clear_plane	;wreg free
  2570   00003E                     
  2571                           ;main.c: 211:             }else if(cnt == 3){
  2572   00003E  EC68  F00B         	call	_draw_plane	;wreg free
  2573   000042                     
  2574                           ;main.c: 212:                 plane[2][0] = 1;
  2575   000042  5039               	movf	rainfall@x^0,w,c
  2576   000044  103A               	iorwf	(rainfall@x+1)^0,w,c
  2577   000046  A4D8               	btfss	status,2,c
  2578   000048  EF28  F000         	goto	u2221
  2579   00004C  EF2A  F000         	goto	u2220
  2580   000050                     u2221:
  2581   000050  EFAF  F000         	goto	l2365
  2582   000054                     u2220:
  2583   000054                     
  2584                           ;main.c: 213:                 plane[2][2] = 1;
  2585   000054  503B               	movf	rainfall@cnt^0,w,c
  2586   000056  103C               	iorwf	(rainfall@cnt+1)^0,w,c
  2587   000058  A4D8               	btfss	status,2,c
  2588   00005A  EF31  F000         	goto	u2231
  2589   00005E  EF33  F000         	goto	u2230
  2590   000062                     u2231:
  2591   000062  EF46  F000         	goto	l2349
  2592   000066                     u2230:
  2593   000066                     l2347:
  2594                           
  2595                           ;main.c: 214:             }else if(cnt == 4){
  2596   000066  0E00               	movlw	0
  2597   000068  0100               	movlb	0	; () banked
  2598   00006A  6F95               	movwf	(_plane+21)& (0+255),b
  2599   00006C  0E01               	movlw	1
  2600   00006E  6F94               	movwf	(_plane+20)& (0+255),b
  2601                           
  2602                           ;main.c: 215:                 plane[2][0] = 1;
  2603   000070  0E00               	movlw	0
  2604   000072  6F97               	movwf	(_plane+23)& (0+255),b
  2605   000074  0E01               	movlw	1
  2606   000076  6F96               	movwf	(_plane+22)& (0+255),b
  2607                           
  2608                           ;main.c: 216:                 plane[2][2] = 1;
  2609   000078  0E00               	movlw	0
  2610   00007A  6F99               	movwf	(_plane+25)& (0+255),b
  2611   00007C  0E01               	movlw	1
  2612   00007E  6F98               	movwf	(_plane+24)& (0+255),b
  2613                           
  2614                           ;main.c: 217:                 plane[2][3] = 1;
  2615   000080  0E00               	movlw	0
  2616   000082  6F9D               	movwf	(_plane+29)& (0+255),b
  2617   000084  0E01               	movlw	1
  2618   000086  6F9C               	movwf	(_plane+28)& (0+255),b
  2619                           
  2620                           ;main.c: 218:                 plane[2][4] = 1;
  2621   000088  EF29  F004         	goto	l2519
  2622   00008C                     l2349:
  2623   00008C  043B               	decf	rainfall@cnt^0,w,c
  2624   00008E  103C               	iorwf	(rainfall@cnt+1)^0,w,c
  2625   000090  A4D8               	btfss	status,2,c
  2626   000092  EF4D  F000         	goto	u2241
  2627   000096  EF4F  F000         	goto	u2240
  2628   00009A                     u2241:
  2629   00009A  EF5A  F000         	goto	l2353
  2630   00009E                     u2240:
  2631   00009E                     l2351:
  2632                           
  2633                           ;main.c: 219:             }
  2634   00009E  0E00               	movlw	0
  2635   0000A0  0100               	movlb	0	; () banked
  2636   0000A2  6F99               	movwf	(_plane+25)& (0+255),b
  2637   0000A4  0E01               	movlw	1
  2638   0000A6  6F98               	movwf	(_plane+24)& (0+255),b
  2639                           
  2640                           ;main.c: 220:         }else if(x==1){
  2641   0000A8  0E00               	movlw	0
  2642   0000AA  6F9D               	movwf	(_plane+29)& (0+255),b
  2643   0000AC  0E01               	movlw	1
  2644   0000AE  6F9C               	movwf	(_plane+28)& (0+255),b
  2645                           
  2646                           ;main.c: 221:             if(cnt==0){
  2647   0000B0  EF29  F004         	goto	l2519
  2648   0000B4                     l2353:
  2649   0000B4  0E02               	movlw	2
  2650   0000B6  183B               	xorwf	rainfall@cnt^0,w,c
  2651   0000B8  103C               	iorwf	(rainfall@cnt+1)^0,w,c
  2652   0000BA  A4D8               	btfss	status,2,c
  2653   0000BC  EF62  F000         	goto	u2251
  2654   0000C0  EF64  F000         	goto	u2250
  2655   0000C4                     u2251:
  2656   0000C4  EF7B  F000         	goto	l2357
  2657   0000C8                     u2250:
  2658   0000C8                     l2355:
  2659                           
  2660                           ;main.c: 222:                 plane[4][0] = 1;
  2661   0000C8  0E00               	movlw	0
  2662   0000CA  0100               	movlb	0	; () banked
  2663   0000CC  6F95               	movwf	(_plane+21)& (0+255),b
  2664   0000CE  0E01               	movlw	1
  2665   0000D0  6F94               	movwf	(_plane+20)& (0+255),b
  2666                           
  2667                           ;main.c: 223:                 plane[3][1] = 1;
  2668   0000D2  0E00               	movlw	0
  2669   0000D4  6F97               	movwf	(_plane+23)& (0+255),b
  2670   0000D6  0E01               	movlw	1
  2671   0000D8  6F96               	movwf	(_plane+22)& (0+255),b
  2672                           
  2673                           ;main.c: 224:                 plane[2][2] = 1;
  2674   0000DA  0E00               	movlw	0
  2675   0000DC  6F99               	movwf	(_plane+25)& (0+255),b
  2676   0000DE  0E01               	movlw	1
  2677   0000E0  6F98               	movwf	(_plane+24)& (0+255),b
  2678                           
  2679                           ;main.c: 225:                 plane[0][4] = 1;
  2680   0000E2  0E00               	movlw	0
  2681   0000E4  6F9B               	movwf	(_plane+27)& (0+255),b
  2682   0000E6  0E01               	movlw	1
  2683   0000E8  6F9A               	movwf	(_plane+26)& (0+255),b
  2684                           
  2685                           ;main.c: 226:             }else if(cnt == 1){
  2686   0000EA  0E00               	movlw	0
  2687   0000EC  6F9D               	movwf	(_plane+29)& (0+255),b
  2688   0000EE  0E01               	movlw	1
  2689   0000F0  6F9C               	movwf	(_plane+28)& (0+255),b
  2690                           
  2691                           ;main.c: 227:                 plane[2][2] = 1;
  2692   0000F2  EF29  F004         	goto	l2519
  2693   0000F6                     l2357:
  2694   0000F6  0E03               	movlw	3
  2695   0000F8  183B               	xorwf	rainfall@cnt^0,w,c
  2696   0000FA  103C               	iorwf	(rainfall@cnt+1)^0,w,c
  2697   0000FC  A4D8               	btfss	status,2,c
  2698   0000FE  EF83  F000         	goto	u2261
  2699   000102  EF85  F000         	goto	u2260
  2700   000106                     u2261:
  2701   000106  EF90  F000         	goto	l2361
  2702   00010A                     u2260:
  2703   00010A                     l2359:
  2704                           
  2705                           ;main.c: 228:                 plane[0][4] = 1;
  2706   00010A  0E00               	movlw	0
  2707   00010C  0100               	movlb	0	; () banked
  2708   00010E  6F95               	movwf	(_plane+21)& (0+255),b
  2709   000110  0E01               	movlw	1
  2710   000112  6F94               	movwf	(_plane+20)& (0+255),b
  2711                           
  2712                           ;main.c: 229:             }else if(cnt == 2){
  2713   000114  0E00               	movlw	0
  2714   000116  6F99               	movwf	(_plane+25)& (0+255),b
  2715   000118  0E01               	movlw	1
  2716   00011A  6F98               	movwf	(_plane+24)& (0+255),b
  2717                           
  2718                           ;main.c: 230:                 plane[4][0] = 1;
  2719   00011C  EF29  F004         	goto	l2519
  2720   000120                     l2361:
  2721   000120  0E04               	movlw	4
  2722   000122  183B               	xorwf	rainfall@cnt^0,w,c
  2723   000124  103C               	iorwf	(rainfall@cnt+1)^0,w,c
  2724   000126  A4D8               	btfss	status,2,c
  2725   000128  EF98  F000         	goto	u2271
  2726   00012C  EF9A  F000         	goto	u2270
  2727   000130                     u2271:
  2728   000130  EFAD  F000         	goto	l175
  2729   000134                     u2270:
  2730   000134                     l2363:
  2731                           
  2732                           ;main.c: 231:                 plane[3][1] = 1;
  2733   000134  0E00               	movlw	0
  2734   000136  0100               	movlb	0	; () banked
  2735   000138  6F95               	movwf	(_plane+21)& (0+255),b
  2736   00013A  0E01               	movlw	1
  2737   00013C  6F94               	movwf	(_plane+20)& (0+255),b
  2738                           
  2739                           ;main.c: 232:                 plane[2][2] = 1;
  2740   00013E  0E00               	movlw	0
  2741   000140  6F99               	movwf	(_plane+25)& (0+255),b
  2742   000142  0E01               	movlw	1
  2743   000144  6F98               	movwf	(_plane+24)& (0+255),b
  2744                           
  2745                           ;main.c: 233:                 plane[1][3] = 1;
  2746   000146  0E00               	movlw	0
  2747   000148  6F9B               	movwf	(_plane+27)& (0+255),b
  2748   00014A  0E01               	movlw	1
  2749   00014C  6F9A               	movwf	(_plane+26)& (0+255),b
  2750                           
  2751                           ;main.c: 234:                 plane[0][4] = 1;
  2752   00014E  0E00               	movlw	0
  2753   000150  6F9D               	movwf	(_plane+29)& (0+255),b
  2754   000152  0E01               	movlw	1
  2755   000154  6F9C               	movwf	(_plane+28)& (0+255),b
  2756   000156  EF29  F004         	goto	l2519
  2757   00015A                     l175:
  2758   00015A  EF29  F004         	goto	l2519
  2759   00015E                     l2365:
  2760   00015E  0439               	decf	rainfall@x^0,w,c
  2761   000160  103A               	iorwf	(rainfall@x+1)^0,w,c
  2762   000162  A4D8               	btfss	status,2,c
  2763   000164  EFB6  F000         	goto	u2281
  2764   000168  EFB8  F000         	goto	u2280
  2765   00016C                     u2281:
  2766   00016C  EF3B  F001         	goto	l2387
  2767   000170                     u2280:
  2768   000170                     
  2769                           ;main.c: 237:                 plane[2][2] = 1;
  2770   000170  503B               	movf	rainfall@cnt^0,w,c
  2771   000172  103C               	iorwf	(rainfall@cnt+1)^0,w,c
  2772   000174  A4D8               	btfss	status,2,c
  2773   000176  EFBF  F000         	goto	u2291
  2774   00017A  EFC1  F000         	goto	u2290
  2775   00017E                     u2291:
  2776   00017E  EFD4  F000         	goto	l2371
  2777   000182                     u2290:
  2778   000182                     
  2779                           ;main.c: 238:             }else if(cnt == 4){
  2780   000182  0E00               	movlw	0
  2781   000184  0100               	movlb	0	; () banked
  2782   000186  6FA9               	movwf	(_plane+41)& (0+255),b
  2783   000188  0E01               	movlw	1
  2784   00018A  6FA8               	movwf	(_plane+40)& (0+255),b
  2785                           
  2786                           ;main.c: 239:                 plane[4][0] = 1;
  2787   00018C  0E00               	movlw	0
  2788   00018E  6FA1               	movwf	(_plane+33)& (0+255),b
  2789   000190  0E01               	movlw	1
  2790   000192  6FA0               	movwf	(_plane+32)& (0+255),b
  2791                           
  2792                           ;main.c: 240:                 plane[2][2] = 1;
  2793   000194  0E00               	movlw	0
  2794   000196  6F99               	movwf	(_plane+25)& (0+255),b
  2795   000198  0E01               	movlw	1
  2796   00019A  6F98               	movwf	(_plane+24)& (0+255),b
  2797                           
  2798                           ;main.c: 241:                 plane[1][3] = 1;
  2799   00019C  0E00               	movlw	0
  2800   00019E  6F89               	movwf	(_plane+9)& (0+255),b
  2801   0001A0  0E01               	movlw	1
  2802   0001A2  6F88               	movwf	(_plane+8)& (0+255),b
  2803                           
  2804                           ;main.c: 242:                 plane[0][4] = 1;
  2805   0001A4  EF29  F004         	goto	l2519
  2806   0001A8                     l2371:
  2807   0001A8  043B               	decf	rainfall@cnt^0,w,c
  2808   0001AA  103C               	iorwf	(rainfall@cnt+1)^0,w,c
  2809   0001AC  A4D8               	btfss	status,2,c
  2810   0001AE  EFDB  F000         	goto	u2301
  2811   0001B2  EFDD  F000         	goto	u2300
  2812   0001B6                     u2301:
  2813   0001B6  EFE8  F000         	goto	l2375
  2814   0001BA                     u2300:
  2815   0001BA                     
  2816                           ;main.c: 243:             }
  2817   0001BA  0E00               	movlw	0
  2818   0001BC  0100               	movlb	0	; () banked
  2819   0001BE  6F99               	movwf	(_plane+25)& (0+255),b
  2820   0001C0  0E01               	movlw	1
  2821   0001C2  6F98               	movwf	(_plane+24)& (0+255),b
  2822                           
  2823                           ;main.c: 244:         }else if(x==2){
  2824   0001C4  0E00               	movlw	0
  2825   0001C6  6F89               	movwf	(_plane+9)& (0+255),b
  2826   0001C8  0E01               	movlw	1
  2827   0001CA  6F88               	movwf	(_plane+8)& (0+255),b
  2828                           
  2829                           ;main.c: 245:             if(cnt==0){
  2830   0001CC  EF29  F004         	goto	l2519
  2831   0001D0                     l2375:
  2832   0001D0  0E02               	movlw	2
  2833   0001D2  183B               	xorwf	rainfall@cnt^0,w,c
  2834   0001D4  103C               	iorwf	(rainfall@cnt+1)^0,w,c
  2835   0001D6  A4D8               	btfss	status,2,c
  2836   0001D8  EFF0  F000         	goto	u2311
  2837   0001DC  EFF2  F000         	goto	u2310
  2838   0001E0                     u2311:
  2839   0001E0  EF09  F001         	goto	l2379
  2840   0001E4                     u2310:
  2841   0001E4                     
  2842                           ;main.c: 246:                 plane[4][2] = 1;
  2843   0001E4  0E00               	movlw	0
  2844   0001E6  0100               	movlb	0	; () banked
  2845   0001E8  6FA9               	movwf	(_plane+41)& (0+255),b
  2846   0001EA  0E01               	movlw	1
  2847   0001EC  6FA8               	movwf	(_plane+40)& (0+255),b
  2848                           
  2849                           ;main.c: 247:                 plane[3][2] = 1;
  2850   0001EE  0E00               	movlw	0
  2851   0001F0  6FA1               	movwf	(_plane+33)& (0+255),b
  2852   0001F2  0E01               	movlw	1
  2853   0001F4  6FA0               	movwf	(_plane+32)& (0+255),b
  2854                           
  2855                           ;main.c: 248:                 plane[2][2] = 1;
  2856   0001F6  0E00               	movlw	0
  2857   0001F8  6F99               	movwf	(_plane+25)& (0+255),b
  2858   0001FA  0E01               	movlw	1
  2859   0001FC  6F98               	movwf	(_plane+24)& (0+255),b
  2860                           
  2861                           ;main.c: 249:                 plane[0][2] = 1;
  2862   0001FE  0E00               	movlw	0
  2863   000200  6F91               	movwf	(_plane+17)& (0+255),b
  2864   000202  0E01               	movlw	1
  2865   000204  6F90               	movwf	(_plane+16)& (0+255),b
  2866                           
  2867                           ;main.c: 250:             }else if(cnt == 1){
  2868   000206  0E00               	movlw	0
  2869   000208  6F89               	movwf	(_plane+9)& (0+255),b
  2870   00020A  0E01               	movlw	1
  2871   00020C  6F88               	movwf	(_plane+8)& (0+255),b
  2872                           
  2873                           ;main.c: 251:                 plane[2][2] = 1;
  2874   00020E  EF29  F004         	goto	l2519
  2875   000212                     l2379:
  2876   000212  0E03               	movlw	3
  2877   000214  183B               	xorwf	rainfall@cnt^0,w,c
  2878   000216  103C               	iorwf	(rainfall@cnt+1)^0,w,c
  2879   000218  A4D8               	btfss	status,2,c
  2880   00021A  EF11  F001         	goto	u2321
  2881   00021E  EF13  F001         	goto	u2320
  2882   000222                     u2321:
  2883   000222  EF1E  F001         	goto	l2383
  2884   000226                     u2320:
  2885   000226                     
  2886                           ;main.c: 252:                 plane[0][2] = 1;
  2887   000226  0E00               	movlw	0
  2888   000228  0100               	movlb	0	; () banked
  2889   00022A  6FA9               	movwf	(_plane+41)& (0+255),b
  2890   00022C  0E01               	movlw	1
  2891   00022E  6FA8               	movwf	(_plane+40)& (0+255),b
  2892                           
  2893                           ;main.c: 253:             }else if(cnt == 2){
  2894   000230  0E00               	movlw	0
  2895   000232  6F99               	movwf	(_plane+25)& (0+255),b
  2896   000234  0E01               	movlw	1
  2897   000236  6F98               	movwf	(_plane+24)& (0+255),b
  2898                           
  2899                           ;main.c: 254:                 plane[4][2] = 1;
  2900   000238  EF29  F004         	goto	l2519
  2901   00023C                     l2383:
  2902   00023C  0E04               	movlw	4
  2903   00023E  183B               	xorwf	rainfall@cnt^0,w,c
  2904   000240  103C               	iorwf	(rainfall@cnt+1)^0,w,c
  2905   000242  A4D8               	btfss	status,2,c
  2906   000244  EF26  F001         	goto	u2331
  2907   000248  EF28  F001         	goto	u2330
  2908   00024C                     u2331:
  2909   00024C  EFAD  F000         	goto	l175
  2910   000250                     u2330:
  2911   000250                     
  2912                           ;main.c: 255:                 plane[3][2] = 1;
  2913   000250  0E00               	movlw	0
  2914   000252  0100               	movlb	0	; () banked
  2915   000254  6FA9               	movwf	(_plane+41)& (0+255),b
  2916   000256  0E01               	movlw	1
  2917   000258  6FA8               	movwf	(_plane+40)& (0+255),b
  2918                           
  2919                           ;main.c: 256:                 plane[2][2] = 1;
  2920   00025A  0E00               	movlw	0
  2921   00025C  6F99               	movwf	(_plane+25)& (0+255),b
  2922   00025E  0E01               	movlw	1
  2923   000260  6F98               	movwf	(_plane+24)& (0+255),b
  2924                           
  2925                           ;main.c: 257:                 plane[1][2] = 1;
  2926   000262  0E00               	movlw	0
  2927   000264  6F91               	movwf	(_plane+17)& (0+255),b
  2928   000266  0E01               	movlw	1
  2929   000268  6F90               	movwf	(_plane+16)& (0+255),b
  2930                           
  2931                           ;main.c: 258:                 plane[0][2] = 1;
  2932   00026A  0E00               	movlw	0
  2933   00026C  6F89               	movwf	(_plane+9)& (0+255),b
  2934   00026E  0E01               	movlw	1
  2935   000270  6F88               	movwf	(_plane+8)& (0+255),b
  2936   000272  EF29  F004         	goto	l2519
  2937   000276                     l2387:
  2938   000276  0E02               	movlw	2
  2939   000278  1839               	xorwf	rainfall@x^0,w,c
  2940   00027A  103A               	iorwf	(rainfall@x+1)^0,w,c
  2941   00027C  A4D8               	btfss	status,2,c
  2942   00027E  EF43  F001         	goto	u2341
  2943   000282  EF45  F001         	goto	u2340
  2944   000286                     u2341:
  2945   000286  EFC8  F001         	goto	l2409
  2946   00028A                     u2340:
  2947   00028A                     
  2948                           ;main.c: 261:                 plane[2][2] = 1;
  2949   00028A  503B               	movf	rainfall@cnt^0,w,c
  2950   00028C  103C               	iorwf	(rainfall@cnt+1)^0,w,c
  2951   00028E  A4D8               	btfss	status,2,c
  2952   000290  EF4C  F001         	goto	u2351
  2953   000294  EF4E  F001         	goto	u2350
  2954   000298                     u2351:
  2955   000298  EF61  F001         	goto	l2393
  2956   00029C                     u2350:
  2957   00029C                     
  2958                           ;main.c: 262:             }else if(cnt == 4){
  2959   00029C  0E00               	movlw	0
  2960   00029E  0100               	movlb	0	; () banked
  2961   0002A0  6FAD               	movwf	(_plane+45)& (0+255),b
  2962   0002A2  0E01               	movlw	1
  2963   0002A4  6FAC               	movwf	(_plane+44)& (0+255),b
  2964                           
  2965                           ;main.c: 263:                 plane[4][2] = 1;
  2966   0002A6  0E00               	movlw	0
  2967   0002A8  6FA3               	movwf	(_plane+35)& (0+255),b
  2968   0002AA  0E01               	movlw	1
  2969   0002AC  6FA2               	movwf	(_plane+34)& (0+255),b
  2970                           
  2971                           ;main.c: 264:                 plane[2][2] = 1;
  2972   0002AE  0E00               	movlw	0
  2973   0002B0  6F99               	movwf	(_plane+25)& (0+255),b
  2974   0002B2  0E01               	movlw	1
  2975   0002B4  6F98               	movwf	(_plane+24)& (0+255),b
  2976                           
  2977                           ;main.c: 265:                 plane[1][2] = 1;
  2978   0002B6  0E00               	movlw	0
  2979   0002B8  6F85               	movwf	(_plane+5)& (0+255),b
  2980   0002BA  0E01               	movlw	1
  2981   0002BC  6F84               	movwf	(_plane+4)& (0+255),b
  2982                           
  2983                           ;main.c: 266:                 plane[0][2] = 1;
  2984   0002BE  EF29  F004         	goto	l2519
  2985   0002C2                     l2393:
  2986   0002C2  043B               	decf	rainfall@cnt^0,w,c
  2987   0002C4  103C               	iorwf	(rainfall@cnt+1)^0,w,c
  2988   0002C6  A4D8               	btfss	status,2,c
  2989   0002C8  EF68  F001         	goto	u2361
  2990   0002CC  EF6A  F001         	goto	u2360
  2991   0002D0                     u2361:
  2992   0002D0  EF75  F001         	goto	l2397
  2993   0002D4                     u2360:
  2994   0002D4                     
  2995                           ;main.c: 267:             }
  2996   0002D4  0E00               	movlw	0
  2997   0002D6  0100               	movlb	0	; () banked
  2998   0002D8  6F99               	movwf	(_plane+25)& (0+255),b
  2999   0002DA  0E01               	movlw	1
  3000   0002DC  6F98               	movwf	(_plane+24)& (0+255),b
  3001                           
  3002                           ;main.c: 268:         }else if(x==3){
  3003   0002DE  0E00               	movlw	0
  3004   0002E0  6F85               	movwf	(_plane+5)& (0+255),b
  3005   0002E2  0E01               	movlw	1
  3006   0002E4  6F84               	movwf	(_plane+4)& (0+255),b
  3007                           
  3008                           ;main.c: 269:             if(cnt==0){
  3009   0002E6  EF29  F004         	goto	l2519
  3010   0002EA                     l2397:
  3011   0002EA  0E02               	movlw	2
  3012   0002EC  183B               	xorwf	rainfall@cnt^0,w,c
  3013   0002EE  103C               	iorwf	(rainfall@cnt+1)^0,w,c
  3014   0002F0  A4D8               	btfss	status,2,c
  3015   0002F2  EF7D  F001         	goto	u2371
  3016   0002F6  EF7F  F001         	goto	u2370
  3017   0002FA                     u2371:
  3018   0002FA  EF96  F001         	goto	l2401
  3019   0002FE                     u2370:
  3020   0002FE                     
  3021                           ;main.c: 270:                 plane[4][4] = 1;
  3022   0002FE  0E00               	movlw	0
  3023   000300  0100               	movlb	0	; () banked
  3024   000302  6FAD               	movwf	(_plane+45)& (0+255),b
  3025   000304  0E01               	movlw	1
  3026   000306  6FAC               	movwf	(_plane+44)& (0+255),b
  3027                           
  3028                           ;main.c: 271:                 plane[3][3] = 1;
  3029   000308  0E00               	movlw	0
  3030   00030A  6FA3               	movwf	(_plane+35)& (0+255),b
  3031   00030C  0E01               	movlw	1
  3032   00030E  6FA2               	movwf	(_plane+34)& (0+255),b
  3033                           
  3034                           ;main.c: 272:                 plane[2][2] = 1;
  3035   000310  0E00               	movlw	0
  3036   000312  6F99               	movwf	(_plane+25)& (0+255),b
  3037   000314  0E01               	movlw	1
  3038   000316  6F98               	movwf	(_plane+24)& (0+255),b
  3039                           
  3040                           ;main.c: 273:                 plane[0][0] = 1;
  3041   000318  0E00               	movlw	0
  3042   00031A  6F8F               	movwf	(_plane+15)& (0+255),b
  3043   00031C  0E01               	movlw	1
  3044   00031E  6F8E               	movwf	(_plane+14)& (0+255),b
  3045                           
  3046                           ;main.c: 274:             }else if(cnt == 1){
  3047   000320  0E00               	movlw	0
  3048   000322  6F85               	movwf	(_plane+5)& (0+255),b
  3049   000324  0E01               	movlw	1
  3050   000326  6F84               	movwf	(_plane+4)& (0+255),b
  3051                           
  3052                           ;main.c: 275:                 plane[2][2] = 1;
  3053   000328  EF29  F004         	goto	l2519
  3054   00032C                     l2401:
  3055   00032C  0E03               	movlw	3
  3056   00032E  183B               	xorwf	rainfall@cnt^0,w,c
  3057   000330  103C               	iorwf	(rainfall@cnt+1)^0,w,c
  3058   000332  A4D8               	btfss	status,2,c
  3059   000334  EF9E  F001         	goto	u2381
  3060   000338  EFA0  F001         	goto	u2380
  3061   00033C                     u2381:
  3062   00033C  EFAB  F001         	goto	l2405
  3063   000340                     u2380:
  3064   000340                     
  3065                           ;main.c: 276:                 plane[0][0] = 1;
  3066   000340  0E00               	movlw	0
  3067   000342  0100               	movlb	0	; () banked
  3068   000344  6FAD               	movwf	(_plane+45)& (0+255),b
  3069   000346  0E01               	movlw	1
  3070   000348  6FAC               	movwf	(_plane+44)& (0+255),b
  3071                           
  3072                           ;main.c: 277:             }else if(cnt == 2){
  3073   00034A  0E00               	movlw	0
  3074   00034C  6F99               	movwf	(_plane+25)& (0+255),b
  3075   00034E  0E01               	movlw	1
  3076   000350  6F98               	movwf	(_plane+24)& (0+255),b
  3077                           
  3078                           ;main.c: 278:                 plane[4][4] = 1;
  3079   000352  EF29  F004         	goto	l2519
  3080   000356                     l2405:
  3081   000356  0E04               	movlw	4
  3082   000358  183B               	xorwf	rainfall@cnt^0,w,c
  3083   00035A  103C               	iorwf	(rainfall@cnt+1)^0,w,c
  3084   00035C  A4D8               	btfss	status,2,c
  3085   00035E  EFB3  F001         	goto	u2391
  3086   000362  EFB5  F001         	goto	u2390
  3087   000366                     u2391:
  3088   000366  EFAD  F000         	goto	l175
  3089   00036A                     u2390:
  3090   00036A                     
  3091                           ;main.c: 279:                 plane[3][3] = 1;
  3092   00036A  0E00               	movlw	0
  3093   00036C  0100               	movlb	0	; () banked
  3094   00036E  6FAD               	movwf	(_plane+45)& (0+255),b
  3095   000370  0E01               	movlw	1
  3096   000372  6FAC               	movwf	(_plane+44)& (0+255),b
  3097                           
  3098                           ;main.c: 280:                 plane[2][2] = 1;
  3099   000374  0E00               	movlw	0
  3100   000376  6F99               	movwf	(_plane+25)& (0+255),b
  3101   000378  0E01               	movlw	1
  3102   00037A  6F98               	movwf	(_plane+24)& (0+255),b
  3103                           
  3104                           ;main.c: 281:                 plane[1][1] = 1;
  3105   00037C  0E00               	movlw	0
  3106   00037E  6F8F               	movwf	(_plane+15)& (0+255),b
  3107   000380  0E01               	movlw	1
  3108   000382  6F8E               	movwf	(_plane+14)& (0+255),b
  3109                           
  3110                           ;main.c: 282:                 plane[0][0] = 1;
  3111   000384  0E00               	movlw	0
  3112   000386  6F85               	movwf	(_plane+5)& (0+255),b
  3113   000388  0E01               	movlw	1
  3114   00038A  6F84               	movwf	(_plane+4)& (0+255),b
  3115   00038C  EF29  F004         	goto	l2519
  3116   000390                     l2409:
  3117   000390  0E03               	movlw	3
  3118   000392  1839               	xorwf	rainfall@x^0,w,c
  3119   000394  103A               	iorwf	(rainfall@x+1)^0,w,c
  3120   000396  A4D8               	btfss	status,2,c
  3121   000398  EFD0  F001         	goto	u2401
  3122   00039C  EFD2  F001         	goto	u2400
  3123   0003A0                     u2401:
  3124   0003A0  EF55  F002         	goto	l2431
  3125   0003A4                     u2400:
  3126   0003A4                     
  3127                           ;main.c: 285:                 plane[2][2] = 1;
  3128   0003A4  503B               	movf	rainfall@cnt^0,w,c
  3129   0003A6  103C               	iorwf	(rainfall@cnt+1)^0,w,c
  3130   0003A8  A4D8               	btfss	status,2,c
  3131   0003AA  EFD9  F001         	goto	u2411
  3132   0003AE  EFDB  F001         	goto	u2410
  3133   0003B2                     u2411:
  3134   0003B2  EFEE  F001         	goto	l2415
  3135   0003B6                     u2410:
  3136   0003B6                     
  3137                           ;main.c: 286:             }else if(cnt == 4){
  3138   0003B6  0E00               	movlw	0
  3139   0003B8  0100               	movlb	0	; () banked
  3140   0003BA  6FB1               	movwf	(_plane+49)& (0+255),b
  3141   0003BC  0E01               	movlw	1
  3142   0003BE  6FB0               	movwf	(_plane+48)& (0+255),b
  3143                           
  3144                           ;main.c: 287:                 plane[4][4] = 1;
  3145   0003C0  0E00               	movlw	0
  3146   0003C2  6FA5               	movwf	(_plane+37)& (0+255),b
  3147   0003C4  0E01               	movlw	1
  3148   0003C6  6FA4               	movwf	(_plane+36)& (0+255),b
  3149                           
  3150                           ;main.c: 288:                 plane[2][2] = 1;
  3151   0003C8  0E00               	movlw	0
  3152   0003CA  6F99               	movwf	(_plane+25)& (0+255),b
  3153   0003CC  0E01               	movlw	1
  3154   0003CE  6F98               	movwf	(_plane+24)& (0+255),b
  3155                           
  3156                           ;main.c: 289:                 plane[1][1] = 1;
  3157   0003D0  0E00               	movlw	0
  3158   0003D2  6F81               	movwf	(_plane+1)& (0+255),b
  3159   0003D4  0E01               	movlw	1
  3160   0003D6  6F80               	movwf	_plane& (0+255),b
  3161                           
  3162                           ;main.c: 290:                 plane[0][0] = 1;
  3163   0003D8  EF29  F004         	goto	l2519
  3164   0003DC                     l2415:
  3165   0003DC  043B               	decf	rainfall@cnt^0,w,c
  3166   0003DE  103C               	iorwf	(rainfall@cnt+1)^0,w,c
  3167   0003E0  A4D8               	btfss	status,2,c
  3168   0003E2  EFF5  F001         	goto	u2421
  3169   0003E6  EFF7  F001         	goto	u2420
  3170   0003EA                     u2421:
  3171   0003EA  EF02  F002         	goto	l2419
  3172   0003EE                     u2420:
  3173   0003EE                     
  3174                           ;main.c: 291:             }
  3175   0003EE  0E00               	movlw	0
  3176   0003F0  0100               	movlb	0	; () banked
  3177   0003F2  6F99               	movwf	(_plane+25)& (0+255),b
  3178   0003F4  0E01               	movlw	1
  3179   0003F6  6F98               	movwf	(_plane+24)& (0+255),b
  3180                           
  3181                           ;main.c: 292:         }else if(x==4){
  3182   0003F8  0E00               	movlw	0
  3183   0003FA  6F81               	movwf	(_plane+1)& (0+255),b
  3184   0003FC  0E01               	movlw	1
  3185   0003FE  6F80               	movwf	_plane& (0+255),b
  3186                           
  3187                           ;main.c: 293:             if(cnt==0){
  3188   000400  EF29  F004         	goto	l2519
  3189   000404                     l2419:
  3190   000404  0E02               	movlw	2
  3191   000406  183B               	xorwf	rainfall@cnt^0,w,c
  3192   000408  103C               	iorwf	(rainfall@cnt+1)^0,w,c
  3193   00040A  A4D8               	btfss	status,2,c
  3194   00040C  EF0A  F002         	goto	u2431
  3195   000410  EF0C  F002         	goto	u2430
  3196   000414                     u2431:
  3197   000414  EF23  F002         	goto	l2423
  3198   000418                     u2430:
  3199   000418                     l2421:
  3200                           
  3201                           ;main.c: 294:                 plane[2][0] = 1;
  3202   000418  0E00               	movlw	0
  3203   00041A  0100               	movlb	0	; () banked
  3204   00041C  6FB1               	movwf	(_plane+49)& (0+255),b
  3205   00041E  0E01               	movlw	1
  3206   000420  6FB0               	movwf	(_plane+48)& (0+255),b
  3207                           
  3208                           ;main.c: 295:                 plane[2][2] = 1;
  3209   000422  0E00               	movlw	0
  3210   000424  6FA5               	movwf	(_plane+37)& (0+255),b
  3211   000426  0E01               	movlw	1
  3212   000428  6FA4               	movwf	(_plane+36)& (0+255),b
  3213                           
  3214                           ;main.c: 296:                 plane[2][3] = 1;
  3215   00042A  0E00               	movlw	0
  3216   00042C  6F99               	movwf	(_plane+25)& (0+255),b
  3217   00042E  0E01               	movlw	1
  3218   000430  6F98               	movwf	(_plane+24)& (0+255),b
  3219                           
  3220                           ;main.c: 297:                 plane[2][4] = 1;
  3221   000432  0E00               	movlw	0
  3222   000434  6F8D               	movwf	(_plane+13)& (0+255),b
  3223   000436  0E01               	movlw	1
  3224   000438  6F8C               	movwf	(_plane+12)& (0+255),b
  3225                           
  3226                           ;main.c: 298:             }else if(cnt == 1){
  3227   00043A  0E00               	movlw	0
  3228   00043C  6F81               	movwf	(_plane+1)& (0+255),b
  3229   00043E  0E01               	movlw	1
  3230   000440  6F80               	movwf	_plane& (0+255),b
  3231                           
  3232                           ;main.c: 299:                 plane[2][0] = 1;
  3233   000442  EF29  F004         	goto	l2519
  3234   000446                     l2423:
  3235   000446  0E03               	movlw	3
  3236   000448  183B               	xorwf	rainfall@cnt^0,w,c
  3237   00044A  103C               	iorwf	(rainfall@cnt+1)^0,w,c
  3238   00044C  A4D8               	btfss	status,2,c
  3239   00044E  EF2B  F002         	goto	u2441
  3240   000452  EF2D  F002         	goto	u2440
  3241   000456                     u2441:
  3242   000456  EF38  F002         	goto	l2427
  3243   00045A                     u2440:
  3244   00045A                     
  3245                           ;main.c: 300:                 plane[2][2] = 1;
  3246   00045A  0E00               	movlw	0
  3247   00045C  0100               	movlb	0	; () banked
  3248   00045E  6FB1               	movwf	(_plane+49)& (0+255),b
  3249   000460  0E01               	movlw	1
  3250   000462  6FB0               	movwf	(_plane+48)& (0+255),b
  3251                           
  3252                           ;main.c: 301:             }else if(cnt == 2){
  3253   000464  0E00               	movlw	0
  3254   000466  6F99               	movwf	(_plane+25)& (0+255),b
  3255   000468  0E01               	movlw	1
  3256   00046A  6F98               	movwf	(_plane+24)& (0+255),b
  3257                           
  3258                           ;main.c: 302:                 plane[2][0] = 1;
  3259   00046C  EF29  F004         	goto	l2519
  3260   000470                     l2427:
  3261   000470  0E04               	movlw	4
  3262   000472  183B               	xorwf	rainfall@cnt^0,w,c
  3263   000474  103C               	iorwf	(rainfall@cnt+1)^0,w,c
  3264   000476  A4D8               	btfss	status,2,c
  3265   000478  EF40  F002         	goto	u2451
  3266   00047C  EF42  F002         	goto	u2450
  3267   000480                     u2451:
  3268   000480  EFAD  F000         	goto	l175
  3269   000484                     u2450:
  3270   000484                     
  3271                           ;main.c: 303:                 plane[2][1] = 1;
  3272   000484  0E00               	movlw	0
  3273   000486  0100               	movlb	0	; () banked
  3274   000488  6FB1               	movwf	(_plane+49)& (0+255),b
  3275   00048A  0E01               	movlw	1
  3276   00048C  6FB0               	movwf	(_plane+48)& (0+255),b
  3277                           
  3278                           ;main.c: 304:                 plane[2][2] = 1;
  3279   00048E  0E00               	movlw	0
  3280   000490  6F99               	movwf	(_plane+25)& (0+255),b
  3281   000492  0E01               	movlw	1
  3282   000494  6F98               	movwf	(_plane+24)& (0+255),b
  3283                           
  3284                           ;main.c: 305:                 plane[2][3] = 1;
  3285   000496  0E00               	movlw	0
  3286   000498  6F8D               	movwf	(_plane+13)& (0+255),b
  3287   00049A  0E01               	movlw	1
  3288   00049C  6F8C               	movwf	(_plane+12)& (0+255),b
  3289                           
  3290                           ;main.c: 306:                 plane[2][4] = 1;
  3291   00049E  0E00               	movlw	0
  3292   0004A0  6F81               	movwf	(_plane+1)& (0+255),b
  3293   0004A2  0E01               	movlw	1
  3294   0004A4  6F80               	movwf	_plane& (0+255),b
  3295   0004A6  EF29  F004         	goto	l2519
  3296   0004AA                     l2431:
  3297   0004AA  0E04               	movlw	4
  3298   0004AC  1839               	xorwf	rainfall@x^0,w,c
  3299   0004AE  103A               	iorwf	(rainfall@x+1)^0,w,c
  3300   0004B0  A4D8               	btfss	status,2,c
  3301   0004B2  EF5D  F002         	goto	u2461
  3302   0004B6  EF5F  F002         	goto	u2460
  3303   0004BA                     u2461:
  3304   0004BA  EF99  F002         	goto	l2453
  3305   0004BE                     u2460:
  3306   0004BE                     
  3307                           ;main.c: 309:                 plane[2][4] = 1;
  3308   0004BE  503B               	movf	rainfall@cnt^0,w,c
  3309   0004C0  103C               	iorwf	(rainfall@cnt+1)^0,w,c
  3310   0004C2  A4D8               	btfss	status,2,c
  3311   0004C4  EF66  F002         	goto	u2471
  3312   0004C8  EF68  F002         	goto	u2470
  3313   0004CC                     u2471:
  3314   0004CC  EF6A  F002         	goto	l2437
  3315   0004D0                     u2470:
  3316   0004D0  EF9A  F000         	goto	l2363
  3317   0004D4                     l2437:
  3318   0004D4  043B               	decf	rainfall@cnt^0,w,c
  3319   0004D6  103C               	iorwf	(rainfall@cnt+1)^0,w,c
  3320   0004D8  A4D8               	btfss	status,2,c
  3321   0004DA  EF71  F002         	goto	u2481
  3322   0004DE  EF73  F002         	goto	u2480
  3323   0004E2                     u2481:
  3324   0004E2  EF75  F002         	goto	l2441
  3325   0004E6                     u2480:
  3326   0004E6  EF85  F000         	goto	l2359
  3327   0004EA                     l2441:
  3328   0004EA  0E02               	movlw	2
  3329   0004EC  183B               	xorwf	rainfall@cnt^0,w,c
  3330   0004EE  103C               	iorwf	(rainfall@cnt+1)^0,w,c
  3331   0004F0  A4D8               	btfss	status,2,c
  3332   0004F2  EF7D  F002         	goto	u2491
  3333   0004F6  EF7F  F002         	goto	u2490
  3334   0004FA                     u2491:
  3335   0004FA  EF81  F002         	goto	l2445
  3336   0004FE                     u2490:
  3337   0004FE  EF64  F000         	goto	l2355
  3338   000502                     l2445:
  3339   000502  0E03               	movlw	3
  3340   000504  183B               	xorwf	rainfall@cnt^0,w,c
  3341   000506  103C               	iorwf	(rainfall@cnt+1)^0,w,c
  3342   000508  A4D8               	btfss	status,2,c
  3343   00050A  EF89  F002         	goto	u2501
  3344   00050E  EF8B  F002         	goto	u2500
  3345   000512                     u2501:
  3346   000512  EF8D  F002         	goto	l2449
  3347   000516                     u2500:
  3348   000516  EF4F  F000         	goto	l2351
  3349   00051A                     l2449:
  3350   00051A  0E04               	movlw	4
  3351   00051C  183B               	xorwf	rainfall@cnt^0,w,c
  3352   00051E  103C               	iorwf	(rainfall@cnt+1)^0,w,c
  3353   000520  A4D8               	btfss	status,2,c
  3354   000522  EF95  F002         	goto	u2511
  3355   000526  EF97  F002         	goto	u2510
  3356   00052A                     u2511:
  3357   00052A  EFAD  F000         	goto	l175
  3358   00052E                     u2510:
  3359   00052E  EF33  F000         	goto	l2347
  3360   000532                     l2453:
  3361   000532  0E05               	movlw	5
  3362   000534  1839               	xorwf	rainfall@x^0,w,c
  3363   000536  103A               	iorwf	(rainfall@x+1)^0,w,c
  3364   000538  A4D8               	btfss	status,2,c
  3365   00053A  EFA1  F002         	goto	u2521
  3366   00053E  EFA3  F002         	goto	u2520
  3367   000542                     u2521:
  3368   000542  EF26  F003         	goto	l2475
  3369   000546                     u2520:
  3370   000546                     
  3371                           ;main.c: 333:                 plane[2][2] = 1;
  3372   000546  503B               	movf	rainfall@cnt^0,w,c
  3373   000548  103C               	iorwf	(rainfall@cnt+1)^0,w,c
  3374   00054A  A4D8               	btfss	status,2,c
  3375   00054C  EFAA  F002         	goto	u2531
  3376   000550  EFAC  F002         	goto	u2530
  3377   000554                     u2531:
  3378   000554  EFBF  F002         	goto	l2459
  3379   000558                     u2530:
  3380   000558                     
  3381                           ;main.c: 334:             }else if(cnt == 4){
  3382   000558  0E00               	movlw	0
  3383   00055A  0100               	movlb	0	; () banked
  3384   00055C  6F89               	movwf	(_plane+9)& (0+255),b
  3385   00055E  0E01               	movlw	1
  3386   000560  6F88               	movwf	(_plane+8)& (0+255),b
  3387                           
  3388                           ;main.c: 335:                 plane[0][4] = 1;
  3389   000562  0E00               	movlw	0
  3390   000564  6F91               	movwf	(_plane+17)& (0+255),b
  3391   000566  0E01               	movlw	1
  3392   000568  6F90               	movwf	(_plane+16)& (0+255),b
  3393                           
  3394                           ;main.c: 336:                 plane[2][2] = 1;
  3395   00056A  0E00               	movlw	0
  3396   00056C  6F99               	movwf	(_plane+25)& (0+255),b
  3397   00056E  0E01               	movlw	1
  3398   000570  6F98               	movwf	(_plane+24)& (0+255),b
  3399                           
  3400                           ;main.c: 337:                 plane[3][1] = 1;
  3401   000572  0E00               	movlw	0
  3402   000574  6FA9               	movwf	(_plane+41)& (0+255),b
  3403   000576  0E01               	movlw	1
  3404   000578  6FA8               	movwf	(_plane+40)& (0+255),b
  3405                           
  3406                           ;main.c: 338:                 plane[4][0] = 1;
  3407   00057A  EF29  F004         	goto	l2519
  3408   00057E                     l2459:
  3409   00057E  043B               	decf	rainfall@cnt^0,w,c
  3410   000580  103C               	iorwf	(rainfall@cnt+1)^0,w,c
  3411   000582  A4D8               	btfss	status,2,c
  3412   000584  EFC6  F002         	goto	u2541
  3413   000588  EFC8  F002         	goto	u2540
  3414   00058C                     u2541:
  3415   00058C  EFD3  F002         	goto	l2463
  3416   000590                     u2540:
  3417   000590                     
  3418                           ;main.c: 339:             }
  3419   000590  0E00               	movlw	0
  3420   000592  0100               	movlb	0	; () banked
  3421   000594  6F99               	movwf	(_plane+25)& (0+255),b
  3422   000596  0E01               	movlw	1
  3423   000598  6F98               	movwf	(_plane+24)& (0+255),b
  3424                           
  3425                           ;main.c: 340:         }else if(x==6){
  3426   00059A  0E00               	movlw	0
  3427   00059C  6FA9               	movwf	(_plane+41)& (0+255),b
  3428   00059E  0E01               	movlw	1
  3429   0005A0  6FA8               	movwf	(_plane+40)& (0+255),b
  3430                           
  3431                           ;main.c: 341:             if(cnt==0){
  3432   0005A2  EF29  F004         	goto	l2519
  3433   0005A6                     l2463:
  3434   0005A6  0E02               	movlw	2
  3435   0005A8  183B               	xorwf	rainfall@cnt^0,w,c
  3436   0005AA  103C               	iorwf	(rainfall@cnt+1)^0,w,c
  3437   0005AC  A4D8               	btfss	status,2,c
  3438   0005AE  EFDB  F002         	goto	u2551
  3439   0005B2  EFDD  F002         	goto	u2550
  3440   0005B6                     u2551:
  3441   0005B6  EFF4  F002         	goto	l2467
  3442   0005BA                     u2550:
  3443   0005BA                     
  3444                           ;main.c: 342:                 plane[0][2] = 1;
  3445   0005BA  0E00               	movlw	0
  3446   0005BC  0100               	movlb	0	; () banked
  3447   0005BE  6F89               	movwf	(_plane+9)& (0+255),b
  3448   0005C0  0E01               	movlw	1
  3449   0005C2  6F88               	movwf	(_plane+8)& (0+255),b
  3450                           
  3451                           ;main.c: 343:                 plane[1][2] = 1;
  3452   0005C4  0E00               	movlw	0
  3453   0005C6  6F91               	movwf	(_plane+17)& (0+255),b
  3454   0005C8  0E01               	movlw	1
  3455   0005CA  6F90               	movwf	(_plane+16)& (0+255),b
  3456                           
  3457                           ;main.c: 344:                 plane[2][2] = 1;
  3458   0005CC  0E00               	movlw	0
  3459   0005CE  6F99               	movwf	(_plane+25)& (0+255),b
  3460   0005D0  0E01               	movlw	1
  3461   0005D2  6F98               	movwf	(_plane+24)& (0+255),b
  3462                           
  3463                           ;main.c: 345:                 plane[4][2] = 1;
  3464   0005D4  0E00               	movlw	0
  3465   0005D6  6FA1               	movwf	(_plane+33)& (0+255),b
  3466   0005D8  0E01               	movlw	1
  3467   0005DA  6FA0               	movwf	(_plane+32)& (0+255),b
  3468                           
  3469                           ;main.c: 346:             }else if(cnt == 1){
  3470   0005DC  0E00               	movlw	0
  3471   0005DE  6FA9               	movwf	(_plane+41)& (0+255),b
  3472   0005E0  0E01               	movlw	1
  3473   0005E2  6FA8               	movwf	(_plane+40)& (0+255),b
  3474                           
  3475                           ;main.c: 347:                 plane[2][2] = 1;
  3476   0005E4  EF29  F004         	goto	l2519
  3477   0005E8                     l2467:
  3478   0005E8  0E03               	movlw	3
  3479   0005EA  183B               	xorwf	rainfall@cnt^0,w,c
  3480   0005EC  103C               	iorwf	(rainfall@cnt+1)^0,w,c
  3481   0005EE  A4D8               	btfss	status,2,c
  3482   0005F0  EFFC  F002         	goto	u2561
  3483   0005F4  EFFE  F002         	goto	u2560
  3484   0005F8                     u2561:
  3485   0005F8  EF09  F003         	goto	l2471
  3486   0005FC                     u2560:
  3487   0005FC                     
  3488                           ;main.c: 348:                 plane[4][2] = 1;
  3489   0005FC  0E00               	movlw	0
  3490   0005FE  0100               	movlb	0	; () banked
  3491   000600  6F89               	movwf	(_plane+9)& (0+255),b
  3492   000602  0E01               	movlw	1
  3493   000604  6F88               	movwf	(_plane+8)& (0+255),b
  3494                           
  3495                           ;main.c: 349:             }else if(cnt == 2){
  3496   000606  0E00               	movlw	0
  3497   000608  6F99               	movwf	(_plane+25)& (0+255),b
  3498   00060A  0E01               	movlw	1
  3499   00060C  6F98               	movwf	(_plane+24)& (0+255),b
  3500                           
  3501                           ;main.c: 350:                 plane[0][2] = 1;
  3502   00060E  EF29  F004         	goto	l2519
  3503   000612                     l2471:
  3504   000612  0E04               	movlw	4
  3505   000614  183B               	xorwf	rainfall@cnt^0,w,c
  3506   000616  103C               	iorwf	(rainfall@cnt+1)^0,w,c
  3507   000618  A4D8               	btfss	status,2,c
  3508   00061A  EF11  F003         	goto	u2571
  3509   00061E  EF13  F003         	goto	u2570
  3510   000622                     u2571:
  3511   000622  EFAD  F000         	goto	l175
  3512   000626                     u2570:
  3513   000626                     
  3514                           ;main.c: 351:                 plane[1][2] = 1;
  3515   000626  0E00               	movlw	0
  3516   000628  0100               	movlb	0	; () banked
  3517   00062A  6F89               	movwf	(_plane+9)& (0+255),b
  3518   00062C  0E01               	movlw	1
  3519   00062E  6F88               	movwf	(_plane+8)& (0+255),b
  3520                           
  3521                           ;main.c: 352:                 plane[2][2] = 1;
  3522   000630  0E00               	movlw	0
  3523   000632  6F99               	movwf	(_plane+25)& (0+255),b
  3524   000634  0E01               	movlw	1
  3525   000636  6F98               	movwf	(_plane+24)& (0+255),b
  3526                           
  3527                           ;main.c: 353:                 plane[3][2] = 1;
  3528   000638  0E00               	movlw	0
  3529   00063A  6FA1               	movwf	(_plane+33)& (0+255),b
  3530   00063C  0E01               	movlw	1
  3531   00063E  6FA0               	movwf	(_plane+32)& (0+255),b
  3532                           
  3533                           ;main.c: 354:                 plane[4][2] = 1;
  3534   000640  0E00               	movlw	0
  3535   000642  6FA9               	movwf	(_plane+41)& (0+255),b
  3536   000644  0E01               	movlw	1
  3537   000646  6FA8               	movwf	(_plane+40)& (0+255),b
  3538   000648  EF29  F004         	goto	l2519
  3539   00064C                     l2475:
  3540   00064C  0E06               	movlw	6
  3541   00064E  1839               	xorwf	rainfall@x^0,w,c
  3542   000650  103A               	iorwf	(rainfall@x+1)^0,w,c
  3543   000652  A4D8               	btfss	status,2,c
  3544   000654  EF2E  F003         	goto	u2581
  3545   000658  EF30  F003         	goto	u2580
  3546   00065C                     u2581:
  3547   00065C  EFB3  F003         	goto	l2497
  3548   000660                     u2580:
  3549   000660                     
  3550                           ;main.c: 357:                 plane[2][2] = 1;
  3551   000660  503B               	movf	rainfall@cnt^0,w,c
  3552   000662  103C               	iorwf	(rainfall@cnt+1)^0,w,c
  3553   000664  A4D8               	btfss	status,2,c
  3554   000666  EF37  F003         	goto	u2591
  3555   00066A  EF39  F003         	goto	u2590
  3556   00066E                     u2591:
  3557   00066E  EF4C  F003         	goto	l2481
  3558   000672                     u2590:
  3559   000672                     
  3560                           ;main.c: 358:             }else if(cnt == 4){
  3561   000672  0E00               	movlw	0
  3562   000674  0100               	movlb	0	; () banked
  3563   000676  6F85               	movwf	(_plane+5)& (0+255),b
  3564   000678  0E01               	movlw	1
  3565   00067A  6F84               	movwf	(_plane+4)& (0+255),b
  3566                           
  3567                           ;main.c: 359:                 plane[0][2] = 1;
  3568   00067C  0E00               	movlw	0
  3569   00067E  6F8F               	movwf	(_plane+15)& (0+255),b
  3570   000680  0E01               	movlw	1
  3571   000682  6F8E               	movwf	(_plane+14)& (0+255),b
  3572                           
  3573                           ;main.c: 360:                 plane[2][2] = 1;
  3574   000684  0E00               	movlw	0
  3575   000686  6F99               	movwf	(_plane+25)& (0+255),b
  3576   000688  0E01               	movlw	1
  3577   00068A  6F98               	movwf	(_plane+24)& (0+255),b
  3578                           
  3579                           ;main.c: 361:                 plane[3][2] = 1;
  3580   00068C  0E00               	movlw	0
  3581   00068E  6FAD               	movwf	(_plane+45)& (0+255),b
  3582   000690  0E01               	movlw	1
  3583   000692  6FAC               	movwf	(_plane+44)& (0+255),b
  3584                           
  3585                           ;main.c: 362:                 plane[4][2] = 1;
  3586   000694  EF29  F004         	goto	l2519
  3587   000698                     l2481:
  3588   000698  043B               	decf	rainfall@cnt^0,w,c
  3589   00069A  103C               	iorwf	(rainfall@cnt+1)^0,w,c
  3590   00069C  A4D8               	btfss	status,2,c
  3591   00069E  EF53  F003         	goto	u2601
  3592   0006A2  EF55  F003         	goto	u2600
  3593   0006A6                     u2601:
  3594   0006A6  EF60  F003         	goto	l2485
  3595   0006AA                     u2600:
  3596   0006AA                     
  3597                           ;main.c: 363:             }
  3598   0006AA  0E00               	movlw	0
  3599   0006AC  0100               	movlb	0	; () banked
  3600   0006AE  6F99               	movwf	(_plane+25)& (0+255),b
  3601   0006B0  0E01               	movlw	1
  3602   0006B2  6F98               	movwf	(_plane+24)& (0+255),b
  3603                           
  3604                           ;main.c: 364:         }else if(x==7){
  3605   0006B4  0E00               	movlw	0
  3606   0006B6  6FAD               	movwf	(_plane+45)& (0+255),b
  3607   0006B8  0E01               	movlw	1
  3608   0006BA  6FAC               	movwf	(_plane+44)& (0+255),b
  3609                           
  3610                           ;main.c: 365:             if(cnt==0){
  3611   0006BC  EF29  F004         	goto	l2519
  3612   0006C0                     l2485:
  3613   0006C0  0E02               	movlw	2
  3614   0006C2  183B               	xorwf	rainfall@cnt^0,w,c
  3615   0006C4  103C               	iorwf	(rainfall@cnt+1)^0,w,c
  3616   0006C6  A4D8               	btfss	status,2,c
  3617   0006C8  EF68  F003         	goto	u2611
  3618   0006CC  EF6A  F003         	goto	u2610
  3619   0006D0                     u2611:
  3620   0006D0  EF81  F003         	goto	l2489
  3621   0006D4                     u2610:
  3622   0006D4                     
  3623                           ;main.c: 366:                 plane[0][0] = 1;
  3624   0006D4  0E00               	movlw	0
  3625   0006D6  0100               	movlb	0	; () banked
  3626   0006D8  6F85               	movwf	(_plane+5)& (0+255),b
  3627   0006DA  0E01               	movlw	1
  3628   0006DC  6F84               	movwf	(_plane+4)& (0+255),b
  3629                           
  3630                           ;main.c: 367:                 plane[1][1] = 1;
  3631   0006DE  0E00               	movlw	0
  3632   0006E0  6F8F               	movwf	(_plane+15)& (0+255),b
  3633   0006E2  0E01               	movlw	1
  3634   0006E4  6F8E               	movwf	(_plane+14)& (0+255),b
  3635                           
  3636                           ;main.c: 368:                 plane[2][2] = 1;
  3637   0006E6  0E00               	movlw	0
  3638   0006E8  6F99               	movwf	(_plane+25)& (0+255),b
  3639   0006EA  0E01               	movlw	1
  3640   0006EC  6F98               	movwf	(_plane+24)& (0+255),b
  3641                           
  3642                           ;main.c: 369:                 plane[4][4] = 1;
  3643   0006EE  0E00               	movlw	0
  3644   0006F0  6FA3               	movwf	(_plane+35)& (0+255),b
  3645   0006F2  0E01               	movlw	1
  3646   0006F4  6FA2               	movwf	(_plane+34)& (0+255),b
  3647                           
  3648                           ;main.c: 370:             }else if(cnt == 1){
  3649   0006F6  0E00               	movlw	0
  3650   0006F8  6FAD               	movwf	(_plane+45)& (0+255),b
  3651   0006FA  0E01               	movlw	1
  3652   0006FC  6FAC               	movwf	(_plane+44)& (0+255),b
  3653                           
  3654                           ;main.c: 371:                 plane[2][2] = 1;
  3655   0006FE  EF29  F004         	goto	l2519
  3656   000702                     l2489:
  3657   000702  0E03               	movlw	3
  3658   000704  183B               	xorwf	rainfall@cnt^0,w,c
  3659   000706  103C               	iorwf	(rainfall@cnt+1)^0,w,c
  3660   000708  A4D8               	btfss	status,2,c
  3661   00070A  EF89  F003         	goto	u2621
  3662   00070E  EF8B  F003         	goto	u2620
  3663   000712                     u2621:
  3664   000712  EF96  F003         	goto	l2493
  3665   000716                     u2620:
  3666   000716                     
  3667                           ;main.c: 372:                 plane[4][4] = 1;
  3668   000716  0E00               	movlw	0
  3669   000718  0100               	movlb	0	; () banked
  3670   00071A  6F85               	movwf	(_plane+5)& (0+255),b
  3671   00071C  0E01               	movlw	1
  3672   00071E  6F84               	movwf	(_plane+4)& (0+255),b
  3673                           
  3674                           ;main.c: 373:             }else if(cnt == 2){
  3675   000720  0E00               	movlw	0
  3676   000722  6F99               	movwf	(_plane+25)& (0+255),b
  3677   000724  0E01               	movlw	1
  3678   000726  6F98               	movwf	(_plane+24)& (0+255),b
  3679                           
  3680                           ;main.c: 374:                 plane[4][4] = 1;
  3681   000728  EF29  F004         	goto	l2519
  3682   00072C                     l2493:
  3683   00072C  0E04               	movlw	4
  3684   00072E  183B               	xorwf	rainfall@cnt^0,w,c
  3685   000730  103C               	iorwf	(rainfall@cnt+1)^0,w,c
  3686   000732  A4D8               	btfss	status,2,c
  3687   000734  EF9E  F003         	goto	u2631
  3688   000738  EFA0  F003         	goto	u2630
  3689   00073C                     u2631:
  3690   00073C  EFAD  F000         	goto	l175
  3691   000740                     u2630:
  3692   000740                     
  3693                           ;main.c: 375:                 plane[3][3] = 1;
  3694   000740  0E00               	movlw	0
  3695   000742  0100               	movlb	0	; () banked
  3696   000744  6F85               	movwf	(_plane+5)& (0+255),b
  3697   000746  0E01               	movlw	1
  3698   000748  6F84               	movwf	(_plane+4)& (0+255),b
  3699                           
  3700                           ;main.c: 376:                 plane[2][2] = 1;
  3701   00074A  0E00               	movlw	0
  3702   00074C  6F99               	movwf	(_plane+25)& (0+255),b
  3703   00074E  0E01               	movlw	1
  3704   000750  6F98               	movwf	(_plane+24)& (0+255),b
  3705                           
  3706                           ;main.c: 377:                 plane[1][1] = 1;
  3707   000752  0E00               	movlw	0
  3708   000754  6FA3               	movwf	(_plane+35)& (0+255),b
  3709   000756  0E01               	movlw	1
  3710   000758  6FA2               	movwf	(_plane+34)& (0+255),b
  3711                           
  3712                           ;main.c: 378:                 plane[0][0] = 1;
  3713   00075A  0E00               	movlw	0
  3714   00075C  6FAD               	movwf	(_plane+45)& (0+255),b
  3715   00075E  0E01               	movlw	1
  3716   000760  6FAC               	movwf	(_plane+44)& (0+255),b
  3717   000762  EF29  F004         	goto	l2519
  3718   000766                     l2497:
  3719   000766  0E07               	movlw	7
  3720   000768  1839               	xorwf	rainfall@x^0,w,c
  3721   00076A  103A               	iorwf	(rainfall@x+1)^0,w,c
  3722   00076C  A4D8               	btfss	status,2,c
  3723   00076E  EFBB  F003         	goto	u2641
  3724   000772  EFBD  F003         	goto	u2640
  3725   000776                     u2641:
  3726   000776  EF29  F004         	goto	l2519
  3727   00077A                     u2640:
  3728   00077A                     
  3729                           ;main.c: 381:                 plane[2][2] = 1;
  3730   00077A  503B               	movf	rainfall@cnt^0,w,c
  3731   00077C  103C               	iorwf	(rainfall@cnt+1)^0,w,c
  3732   00077E  A4D8               	btfss	status,2,c
  3733   000780  EFC4  F003         	goto	u2651
  3734   000784  EFC6  F003         	goto	u2650
  3735   000788                     u2651:
  3736   000788  EFD9  F003         	goto	l2503
  3737   00078C                     u2650:
  3738   00078C                     
  3739                           ;main.c: 382:             }else if(cnt == 4){
  3740   00078C  0E00               	movlw	0
  3741   00078E  0100               	movlb	0	; () banked
  3742   000790  6F81               	movwf	(_plane+1)& (0+255),b
  3743   000792  0E01               	movlw	1
  3744   000794  6F80               	movwf	_plane& (0+255),b
  3745                           
  3746                           ;main.c: 383:                 plane[4][4] = 1;
  3747   000796  0E00               	movlw	0
  3748   000798  6F8D               	movwf	(_plane+13)& (0+255),b
  3749   00079A  0E01               	movlw	1
  3750   00079C  6F8C               	movwf	(_plane+12)& (0+255),b
  3751                           
  3752                           ;main.c: 384:                 plane[2][2] = 1;
  3753   00079E  0E00               	movlw	0
  3754   0007A0  6F99               	movwf	(_plane+25)& (0+255),b
  3755   0007A2  0E01               	movlw	1
  3756   0007A4  6F98               	movwf	(_plane+24)& (0+255),b
  3757                           
  3758                           ;main.c: 385:                 plane[3][3] = 1;
  3759   0007A6  0E00               	movlw	0
  3760   0007A8  6FB1               	movwf	(_plane+49)& (0+255),b
  3761   0007AA  0E01               	movlw	1
  3762   0007AC  6FB0               	movwf	(_plane+48)& (0+255),b
  3763                           
  3764                           ;main.c: 386:                 plane[0][0] = 1;
  3765   0007AE  EF29  F004         	goto	l2519
  3766   0007B2                     l2503:
  3767   0007B2  043B               	decf	rainfall@cnt^0,w,c
  3768   0007B4  103C               	iorwf	(rainfall@cnt+1)^0,w,c
  3769   0007B6  A4D8               	btfss	status,2,c
  3770   0007B8  EFE0  F003         	goto	u2661
  3771   0007BC  EFE2  F003         	goto	u2660
  3772   0007C0                     u2661:
  3773   0007C0  EFED  F003         	goto	l2507
  3774   0007C4                     u2660:
  3775   0007C4                     
  3776                           ;main.c: 387:             }
  3777   0007C4  0E00               	movlw	0
  3778   0007C6  0100               	movlb	0	; () banked
  3779   0007C8  6F99               	movwf	(_plane+25)& (0+255),b
  3780   0007CA  0E01               	movlw	1
  3781   0007CC  6F98               	movwf	(_plane+24)& (0+255),b
  3782                           
  3783                           ;main.c: 388:         }
  3784   0007CE  0E00               	movlw	0
  3785   0007D0  6FB1               	movwf	(_plane+49)& (0+255),b
  3786   0007D2  0E01               	movlw	1
  3787   0007D4  6FB0               	movwf	(_plane+48)& (0+255),b
  3788                           
  3789                           ;main.c: 389:         set_plane(cnt);
  3790   0007D6  EF29  F004         	goto	l2519
  3791   0007DA                     l2507:
  3792   0007DA  0E02               	movlw	2
  3793   0007DC  183B               	xorwf	rainfall@cnt^0,w,c
  3794   0007DE  103C               	iorwf	(rainfall@cnt+1)^0,w,c
  3795   0007E0  A4D8               	btfss	status,2,c
  3796   0007E2  EFF5  F003         	goto	u2671
  3797   0007E6  EFF7  F003         	goto	u2670
  3798   0007EA                     u2671:
  3799   0007EA  EFF9  F003         	goto	l2511
  3800   0007EE                     u2670:
  3801   0007EE  EF0C  F002         	goto	l2421
  3802   0007F2                     l2511:
  3803   0007F2  0E03               	movlw	3
  3804   0007F4  183B               	xorwf	rainfall@cnt^0,w,c
  3805   0007F6  103C               	iorwf	(rainfall@cnt+1)^0,w,c
  3806   0007F8  A4D8               	btfss	status,2,c
  3807   0007FA  EF01  F004         	goto	u2681
  3808   0007FE  EF03  F004         	goto	u2680
  3809   000802                     u2681:
  3810   000802  EF0E  F004         	goto	l2515
  3811   000806                     u2680:
  3812   000806                     
  3813                           ;main.c: 396:                 x++;
  3814   000806  0E00               	movlw	0
  3815   000808  0100               	movlb	0	; () banked
  3816   00080A  6F81               	movwf	(_plane+1)& (0+255),b
  3817   00080C  0E01               	movlw	1
  3818   00080E  6F80               	movwf	_plane& (0+255),b
  3819                           
  3820                           ;main.c: 397:                 itcnt=0;
  3821   000810  0E00               	movlw	0
  3822   000812  6F99               	movwf	(_plane+25)& (0+255),b
  3823   000814  0E01               	movlw	1
  3824   000816  6F98               	movwf	(_plane+24)& (0+255),b
  3825                           
  3826                           ;main.c: 398:             }
  3827   000818  EF29  F004         	goto	l2519
  3828   00081C                     l2515:
  3829   00081C  0E04               	movlw	4
  3830   00081E  183B               	xorwf	rainfall@cnt^0,w,c
  3831   000820  103C               	iorwf	(rainfall@cnt+1)^0,w,c
  3832   000822  A4D8               	btfss	status,2,c
  3833   000824  EF16  F004         	goto	u2691
  3834   000828  EF18  F004         	goto	u2690
  3835   00082C                     u2691:
  3836   00082C  EFAD  F000         	goto	l175
  3837   000830                     u2690:
  3838   000830                     
  3839                           ;main.c: 399:             x = x%8;
  3840   000830  0E00               	movlw	0
  3841   000832  0100               	movlb	0	; () banked
  3842   000834  6FB1               	movwf	(_plane+49)& (0+255),b
  3843   000836  0E01               	movlw	1
  3844   000838  6FB0               	movwf	(_plane+48)& (0+255),b
  3845                           
  3846                           ;main.c: 400:         }
  3847   00083A  0E00               	movlw	0
  3848   00083C  6F99               	movwf	(_plane+25)& (0+255),b
  3849   00083E  0E01               	movlw	1
  3850   000840  6F98               	movwf	(_plane+24)& (0+255),b
  3851                           
  3852                           ;main.c: 401:     }
  3853   000842  0E00               	movlw	0
  3854   000844  6FA5               	movwf	(_plane+37)& (0+255),b
  3855   000846  0E01               	movlw	1
  3856   000848  6FA4               	movwf	(_plane+36)& (0+255),b
  3857                           
  3858                           ;main.c: 402: }
  3859   00084A  0E00               	movlw	0
  3860   00084C  6F81               	movwf	(_plane+1)& (0+255),b
  3861   00084E  0E01               	movlw	1
  3862   000850  6F80               	movwf	_plane& (0+255),b
  3863   000852                     l2519:
  3864                           
  3865                           ;main.c: 405:     clear_cube();
  3866   000852  C03B  F026         	movff	rainfall@cnt,set_plane@a
  3867   000856  C03C  F027         	movff	rainfall@cnt+1,set_plane@a+1
  3868   00085A  EC18  F010         	call	_set_plane	;wreg free
  3869   00085E                     
  3870                           ;main.c: 406: 
  3871   00085E  EC68  F00B         	call	_draw_plane	;wreg free
  3872   000862                     
  3873                           ;main.c: 407:     while(mode == id){
  3874   000862  4A3B               	infsnz	rainfall@cnt^0,f,c
  3875   000864  2A3C               	incf	(rainfall@cnt+1)^0,f,c
  3876   000866                     
  3877                           ;main.c: 408:         for(int i = 0; i < 5; i++)
  3878   000866  0E05               	movlw	5
  3879   000868  183B               	xorwf	rainfall@cnt^0,w,c
  3880   00086A  103C               	iorwf	(rainfall@cnt+1)^0,w,c
  3881   00086C  A4D8               	btfss	status,2,c
  3882   00086E  EF3B  F004         	goto	u2701
  3883   000872  EF3D  F004         	goto	u2700
  3884   000876                     u2701:
  3885   000876  EF5C  F004         	goto	l2539
  3886   00087A                     u2700:
  3887   00087A                     
  3888                           ;main.c: 409:             for(int j = 0; j < 5; j++)
  3889   00087A  0E00               	movlw	0
  3890   00087C  6E3C               	movwf	(rainfall@cnt+1)^0,c
  3891   00087E  0E00               	movlw	0
  3892   000880  6E3B               	movwf	rainfall@cnt^0,c
  3893   000882                     
  3894                           ;main.c: 410:                 plane[i][j] = 1;
  3895   000882  4A37               	infsnz	rainfall@itcnt^0,f,c
  3896   000884  2A38               	incf	(rainfall@itcnt+1)^0,f,c
  3897   000886                     
  3898                           ;main.c: 411: 
  3899   000886  5037               	movf	rainfall@itcnt^0,w,c
  3900   000888  5C35               	subwf	rainfall@it^0,w,c
  3901   00088A  5036               	movf	(rainfall@it+1)^0,w,c
  3902   00088C  0A80               	xorlw	128
  3903   00088E  6E34               	movwf	??_rainfall^0,c
  3904   000890  5038               	movf	(rainfall@itcnt+1)^0,w,c
  3905   000892  0A80               	xorlw	128
  3906   000894  5834               	subwfb	??_rainfall^0,w,c
  3907   000896  B0D8               	btfsc	status,0,c
  3908   000898  EF50  F004         	goto	u2711
  3909   00089C  EF52  F004         	goto	u2710
  3910   0008A0                     u2711:
  3911   0008A0  EF58  F004         	goto	l2537
  3912   0008A4                     u2710:
  3913   0008A4                     
  3914                           ;main.c: 412:         for(int i = 0; i < 5; i++){
  3915   0008A4  4A39               	infsnz	rainfall@x^0,f,c
  3916   0008A6  2A3A               	incf	(rainfall@x+1)^0,f,c
  3917   0008A8                     
  3918                           ;main.c: 413:             set_plane(i);
  3919   0008A8  0E00               	movlw	0
  3920   0008AA  6E38               	movwf	(rainfall@itcnt+1)^0,c
  3921   0008AC  0E00               	movlw	0
  3922   0008AE  6E37               	movwf	rainfall@itcnt^0,c
  3923   0008B0                     l2537:
  3924                           
  3925                           ;main.c: 415:             _delay((unsigned long)((8)*(4000000/4000.0)));
  3926   0008B0  0E07               	movlw	7
  3927   0008B2  1439               	andwf	rainfall@x^0,w,c
  3928   0008B4  6E39               	movwf	rainfall@x^0,c
  3929   0008B6  6A3A               	clrf	(rainfall@x+1)^0,c
  3930   0008B8                     l2539:
  3931                           
  3932                           ;main.c: 209:                 plane[2][3] = 1;
  3933   0008B8  5032               	movf	rainfall@id^0,w,c
  3934   0008BA  1854               	xorwf	_mode^0,w,c
  3935   0008BC  E109               	bnz	u2720
  3936   0008BE  5033               	movf	(rainfall@id+1)^0,w,c
  3937   0008C0  1855               	xorwf	(_mode+1)^0,w,c
  3938   0008C2  B4D8               	btfsc	status,2,c
  3939   0008C4  EF66  F004         	goto	u2721
  3940   0008C8  EF68  F004         	goto	u2720
  3941   0008CC                     u2721:
  3942   0008CC  EF1D  F000         	goto	l2339
  3943   0008D0                     u2720:
  3944   0008D0  0012               	return		;funcret
  3945   0008D2                     __end_of_rainfall:
  3946                           	callstack 0
  3947                           
  3948 ;; *************** function _clear_plane *****************
  3949 ;; Defined at:
  3950 ;;		line 83 in file "main.c"
  3951 ;; Parameters:    Size  Location     Type
  3952 ;;		None
  3953 ;; Auto vars:     Size  Location     Type
  3954 ;;  j               2   47[COMRAM] int 
  3955 ;;  i               2   45[COMRAM] int 
  3956 ;; Return value:  Size  Location     Type
  3957 ;;                  1    wreg      void 
  3958 ;; Registers used:
  3959 ;;		wreg, fsr2l, fsr2h, status,2, status,0, prodl, prodh, cstack
  3960 ;; Tracked objects:
  3961 ;;		On entry : 0/0
  3962 ;;		On exit  : 0/0
  3963 ;;		Unchanged: 0/0
  3964 ;; Data sizes:     COMRAM   BANK0   BANK1   BANK2   BANK3   BANK4   BANK5
  3965 ;;      Params:         0       0       0       0       0       0       0
  3966 ;;      Locals:         4       0       0       0       0       0       0
  3967 ;;      Temps:          2       0       0       0       0       0       0
  3968 ;;      Totals:         6       0       0       0       0       0       0
  3969 ;;Total ram usage:        6 bytes
  3970 ;; Hardware stack levels used: 1
  3971 ;; Hardware stack levels required when called: 2
  3972 ;; This function calls:
  3973 ;;		___wmul
  3974 ;;		_draw_plane
  3975 ;; This function is called by:
  3976 ;;		_random_pattern
  3977 ;;		_rainfall
  3978 ;;		_scan
  3979 ;; This function uses a non-reentrant model
  3980 ;;
  3981                           
  3982                           	psect	text8
  3983   001CF0                     __ptext8:
  3984                           	callstack 0
  3985   001CF0                     _clear_plane:
  3986                           	callstack 27
  3987   001CF0                     
  3988                           ;main.c: 84:         case 2:
  3989   001CF0  0E00               	movlw	0
  3990   001CF2  6E2F               	movwf	(clear_plane@i+1)^0,c
  3991   001CF4  0E00               	movlw	0
  3992   001CF6  6E2E               	movwf	clear_plane@i^0,c
  3993   001CF8                     l2145:
  3994                           
  3995                           ;main.c: 85:             TRISAbits.TRISA7 = 0;
  3996   001CF8  0E00               	movlw	0
  3997   001CFA  6E31               	movwf	(clear_plane@j+1)^0,c
  3998   001CFC  0E00               	movlw	0
  3999   001CFE  6E30               	movwf	clear_plane@j^0,c
  4000   001D00                     l2151:
  4001                           
  4002                           ;main.c: 86:             LATAbits.LA7 = 1;
  4003   001D00  C02E  F026         	movff	clear_plane@i,___wmul@multiplier
  4004   001D04  C02F  F027         	movff	clear_plane@i+1,___wmul@multiplier+1
  4005   001D08  0E00               	movlw	0
  4006   001D0A  6E29               	movwf	(___wmul@multiplicand+1)^0,c
  4007   001D0C  0E0A               	movlw	10
  4008   001D0E  6E28               	movwf	___wmul@multiplicand^0,c
  4009   001D10  ECF8  F00F         	call	___wmul	;wreg free
  4010   001D14  0E80               	movlw	low _plane
  4011   001D16  2426               	addwf	?___wmul^0,w,c
  4012   001D18  6E2C               	movwf	??_clear_plane^0,c
  4013   001D1A  0E00               	movlw	high _plane
  4014   001D1C  2027               	addwfc	(?___wmul+1)^0,w,c
  4015   001D1E  6E2D               	movwf	(??_clear_plane+1)^0,c
  4016   001D20  90D8               	bcf	status,0,c
  4017   001D22  3430               	rlcf	clear_plane@j^0,w,c
  4018   001D24  6ED9               	movwf	fsr2l,c
  4019   001D26  3431               	rlcf	(clear_plane@j+1)^0,w,c
  4020   001D28  6EDA               	movwf	fsr2h,c
  4021   001D2A  502C               	movf	??_clear_plane^0,w,c
  4022   001D2C  26D9               	addwf	fsr2l,f,c
  4023   001D2E  502D               	movf	(??_clear_plane+1)^0,w,c
  4024   001D30  22DA               	addwfc	fsr2h,f,c
  4025   001D32  0E00               	movlw	0
  4026   001D34  6EDE               	movwf	postinc2,c
  4027   001D36  0E00               	movlw	0
  4028   001D38  6EDD               	movwf	postdec2,c
  4029   001D3A  4A30               	infsnz	clear_plane@j^0,f,c
  4030   001D3C  2A31               	incf	(clear_plane@j+1)^0,f,c
  4031   001D3E  BE31               	btfsc	(clear_plane@j+1)^0,7,c
  4032   001D40  EFAB  F00E         	goto	u1931
  4033   001D44  5031               	movf	(clear_plane@j+1)^0,w,c
  4034   001D46  E109               	bnz	u1930
  4035   001D48  0E05               	movlw	5
  4036   001D4A  5C30               	subwf	clear_plane@j^0,w,c
  4037   001D4C  A0D8               	btfss	status,0,c
  4038   001D4E  EFAB  F00E         	goto	u1931
  4039   001D52  EFAD  F00E         	goto	u1930
  4040   001D56                     u1931:
  4041   001D56  EF80  F00E         	goto	l2151
  4042   001D5A                     u1930:
  4043   001D5A  4A2E               	infsnz	clear_plane@i^0,f,c
  4044   001D5C  2A2F               	incf	(clear_plane@i+1)^0,f,c
  4045   001D5E  BE2F               	btfsc	(clear_plane@i+1)^0,7,c
  4046   001D60  EFBB  F00E         	goto	u1941
  4047   001D64  502F               	movf	(clear_plane@i+1)^0,w,c
  4048   001D66  E109               	bnz	u1940
  4049   001D68  0E05               	movlw	5
  4050   001D6A  5C2E               	subwf	clear_plane@i^0,w,c
  4051   001D6C  A0D8               	btfss	status,0,c
  4052   001D6E  EFBB  F00E         	goto	u1941
  4053   001D72  EFBD  F00E         	goto	u1940
  4054   001D76                     u1941:
  4055   001D76  EF7C  F00E         	goto	l2145
  4056   001D7A                     u1940:
  4057   001D7A                     
  4058                           ;main.c: 87:             break;
  4059   001D7A  EC68  F00B         	call	_draw_plane	;wreg free
  4060   001D7E  0012               	return		;funcret
  4061   001D80                     __end_of_clear_plane:
  4062                           	callstack 0
  4063                           
  4064 ;; *************** function _pulsing *****************
  4065 ;; Defined at:
  4066 ;;		line 534 in file "main.c"
  4067 ;; Parameters:    Size  Location     Type
  4068 ;;  id              2   49[COMRAM] int 
  4069 ;; Auto vars:     Size  Location     Type
  4070 ;;  j               2   55[COMRAM] int 
  4071 ;;  i               2   59[COMRAM] int 
  4072 ;;  i               2   53[COMRAM] int 
  4073 ;;  i               2   57[COMRAM] int 
  4074 ;; Return value:  Size  Location     Type
  4075 ;;                  1    wreg      void 
  4076 ;; Registers used:
  4077 ;;		wreg, fsr2l, fsr2h, status,2, status,0, prodl, prodh, cstack
  4078 ;; Tracked objects:
  4079 ;;		On entry : 0/0
  4080 ;;		On exit  : 0/0
  4081 ;;		Unchanged: 0/0
  4082 ;; Data sizes:     COMRAM   BANK0   BANK1   BANK2   BANK3   BANK4   BANK5
  4083 ;;      Params:         2       0       0       0       0       0       0
  4084 ;;      Locals:         8       0       0       0       0       0       0
  4085 ;;      Temps:          2       0       0       0       0       0       0
  4086 ;;      Totals:        12       0       0       0       0       0       0
  4087 ;;Total ram usage:       12 bytes
  4088 ;; Hardware stack levels used: 1
  4089 ;; Hardware stack levels required when called: 3
  4090 ;; This function calls:
  4091 ;;		___wmul
  4092 ;;		_clear_cube
  4093 ;;		_draw_plane
  4094 ;;		_plane_on
  4095 ;; This function is called by:
  4096 ;;		_main
  4097 ;; This function uses a non-reentrant model
  4098 ;;
  4099                           
  4100                           	psect	text9
  4101   001262                     __ptext9:
  4102                           	callstack 0
  4103   001262                     _pulsing:
  4104                           	callstack 27
  4105   001262                     
  4106                           ;main.c: 536:         for(int i = 0; i < 5; i++){
  4107   001262  EF4B  F00A         	goto	l2909
  4108   001266                     l2829:
  4109                           
  4110                           ;main.c: 537:             for(int j = 0; j < 5; j++)
  4111   001266  EC23  F00E         	call	_clear_cube	;wreg free
  4112   00126A                     
  4113                           ;main.c: 538:                 plane[i][j] = 1;
  4114   00126A  0E00               	movlw	0
  4115   00126C  0100               	movlb	0	; () banked
  4116   00126E  6F99               	movwf	(_plane+25)& (0+255),b
  4117   001270  0E01               	movlw	1
  4118   001272  6F98               	movwf	(_plane+24)& (0+255),b
  4119   001274                     
  4120                           ; BSR set to: 0
  4121                           ;main.c: 539:         }
  4122   001274  EC68  F00B         	call	_draw_plane	;wreg free
  4123   001278                     
  4124                           ;main.c: 540:         plane_on(0);
  4125   001278  0E00               	movlw	0
  4126   00127A  6E07               	movwf	(plane_on@a+1)^0,c
  4127   00127C  0E02               	movlw	2
  4128   00127E  6E06               	movwf	plane_on@a^0,c
  4129   001280  ECC0  F00E         	call	_plane_on	;wreg free
  4130   001284                     
  4131                           ;main.c: 541:         plane_on(4);
  4132   001284  0E41               	movlw	65
  4133   001286  6E34               	movwf	??_pulsing^0,c
  4134   001288  0EEE               	movlw	238
  4135   00128A                     u3147:
  4136   00128A  2EE8               	decfsz	wreg,f,c
  4137   00128C  D7FE               	bra	u3147
  4138   00128E  2E34               	decfsz	??_pulsing^0,f,c
  4139   001290  D7FC               	bra	u3147
  4140   001292  D000               	nop2	
  4141   001294                     
  4142                           ;main.c: 542:         draw_plane();
  4143   001294  0E00               	movlw	0
  4144   001296  6E3B               	movwf	(pulsing@i+1)^0,c
  4145   001298  0E01               	movlw	1
  4146   00129A  6E3A               	movwf	pulsing@i^0,c
  4147   00129C                     l2845:
  4148                           
  4149                           ;main.c: 543:         _delay((unsigned long)((50)*(4000000/4000.0)));
  4150   00129C  90D8               	bcf	status,0,c
  4151   00129E  343A               	rlcf	pulsing@i^0,w,c
  4152   0012A0  6ED9               	movwf	fsr2l,c
  4153   0012A2  343B               	rlcf	(pulsing@i+1)^0,w,c
  4154   0012A4  6EDA               	movwf	fsr2h,c
  4155   0012A6  0E8A               	movlw	low (_plane+10)
  4156   0012A8  26D9               	addwf	fsr2l,f,c
  4157   0012AA  0E00               	movlw	high (_plane+10)
  4158   0012AC  22DA               	addwfc	fsr2h,f,c
  4159   0012AE  0E01               	movlw	1
  4160   0012B0  6EDE               	movwf	postinc2,c
  4161   0012B2  0E00               	movlw	0
  4162   0012B4  6EDD               	movwf	postdec2,c
  4163                           
  4164                           ;main.c: 544:         clear_cube();
  4165   0012B6  90D8               	bcf	status,0,c
  4166   0012B8  343A               	rlcf	pulsing@i^0,w,c
  4167   0012BA  6ED9               	movwf	fsr2l,c
  4168   0012BC  343B               	rlcf	(pulsing@i+1)^0,w,c
  4169   0012BE  6EDA               	movwf	fsr2h,c
  4170   0012C0  0E9E               	movlw	low (_plane+30)
  4171   0012C2  26D9               	addwf	fsr2l,f,c
  4172   0012C4  0E00               	movlw	high (_plane+30)
  4173   0012C6  22DA               	addwfc	fsr2h,f,c
  4174   0012C8  0E01               	movlw	1
  4175   0012CA  6EDE               	movwf	postinc2,c
  4176   0012CC  0E00               	movlw	0
  4177   0012CE  6EDD               	movwf	postdec2,c
  4178   0012D0                     
  4179                           ;main.c: 545:         for(int i = 1; i < 4; i++){
  4180   0012D0  4A3A               	infsnz	pulsing@i^0,f,c
  4181   0012D2  2A3B               	incf	(pulsing@i+1)^0,f,c
  4182   0012D4  BE3B               	btfsc	(pulsing@i+1)^0,7,c
  4183   0012D6  EF76  F009         	goto	u3001
  4184   0012DA  503B               	movf	(pulsing@i+1)^0,w,c
  4185   0012DC  E109               	bnz	u3000
  4186   0012DE  0E04               	movlw	4
  4187   0012E0  5C3A               	subwf	pulsing@i^0,w,c
  4188   0012E2  A0D8               	btfss	status,0,c
  4189   0012E4  EF76  F009         	goto	u3001
  4190   0012E8  EF78  F009         	goto	u3000
  4191   0012EC                     u3001:
  4192   0012EC  EF4E  F009         	goto	l2845
  4193   0012F0                     u3000:
  4194   0012F0                     
  4195                           ;main.c: 546:             plane[1][i] = 1;
  4196   0012F0  0E00               	movlw	0
  4197   0012F2  0100               	movlb	0	; () banked
  4198   0012F4  6F97               	movwf	(_plane+23)& (0+255),b
  4199   0012F6  0E01               	movlw	1
  4200   0012F8  6F96               	movwf	(_plane+22)& (0+255),b
  4201                           
  4202                           ;main.c: 547:             plane[2][i] = 1;
  4203   0012FA  0E00               	movlw	0
  4204   0012FC  6F9B               	movwf	(_plane+27)& (0+255),b
  4205   0012FE  0E01               	movlw	1
  4206   001300  6F9A               	movwf	(_plane+26)& (0+255),b
  4207   001302                     
  4208                           ; BSR set to: 0
  4209                           ;main.c: 548:             plane[3][i] = 1;
  4210   001302  EC68  F00B         	call	_draw_plane	;wreg free
  4211   001306                     
  4212                           ;main.c: 549:         }
  4213   001306  0E00               	movlw	0
  4214   001308  6E07               	movwf	(plane_on@a+1)^0,c
  4215   00130A  0E01               	movlw	1
  4216   00130C  6E06               	movwf	plane_on@a^0,c
  4217   00130E  ECC0  F00E         	call	_plane_on	;wreg free
  4218   001312                     
  4219                           ;main.c: 550:         plane_on(1);
  4220   001312  0E00               	movlw	0
  4221   001314  6E07               	movwf	(plane_on@a+1)^0,c
  4222   001316  0E03               	movlw	3
  4223   001318  6E06               	movwf	plane_on@a^0,c
  4224   00131A  ECC0  F00E         	call	_plane_on	;wreg free
  4225   00131E                     
  4226                           ;main.c: 551:         plane_on(2);
  4227   00131E  0E41               	movlw	65
  4228   001320  6E34               	movwf	??_pulsing^0,c
  4229   001322  0EEE               	movlw	238
  4230   001324                     u3157:
  4231   001324  2EE8               	decfsz	wreg,f,c
  4232   001326  D7FE               	bra	u3157
  4233   001328  2E34               	decfsz	??_pulsing^0,f,c
  4234   00132A  D7FC               	bra	u3157
  4235   00132C  D000               	nop2	
  4236   00132E                     
  4237                           ;main.c: 552:         plane_on(3);
  4238   00132E  0E00               	movlw	0
  4239   001330  6E37               	movwf	(pulsing@i_755+1)^0,c
  4240   001332  0E00               	movlw	0
  4241   001334  6E36               	movwf	pulsing@i_755^0,c
  4242   001336                     l2867:
  4243                           
  4244                           ;main.c: 553:         draw_plane();
  4245   001336  0E00               	movlw	0
  4246   001338  6E39               	movwf	(pulsing@j+1)^0,c
  4247   00133A  0E00               	movlw	0
  4248   00133C  6E38               	movwf	pulsing@j^0,c
  4249   00133E                     l2873:
  4250                           
  4251                           ;main.c: 554:         _delay((unsigned long)((50)*(4000000/4000.0)));
  4252   00133E  C036  F026         	movff	pulsing@i_755,___wmul@multiplier
  4253   001342  C037  F027         	movff	pulsing@i_755+1,___wmul@multiplier+1
  4254   001346  0E00               	movlw	0
  4255   001348  6E29               	movwf	(___wmul@multiplicand+1)^0,c
  4256   00134A  0E0A               	movlw	10
  4257   00134C  6E28               	movwf	___wmul@multiplicand^0,c
  4258   00134E  ECF8  F00F         	call	___wmul	;wreg free
  4259   001352  0E80               	movlw	low _plane
  4260   001354  2426               	addwf	?___wmul^0,w,c
  4261   001356  6E34               	movwf	??_pulsing^0,c
  4262   001358  0E00               	movlw	high _plane
  4263   00135A  2027               	addwfc	(?___wmul+1)^0,w,c
  4264   00135C  6E35               	movwf	(??_pulsing+1)^0,c
  4265   00135E  90D8               	bcf	status,0,c
  4266   001360  3438               	rlcf	pulsing@j^0,w,c
  4267   001362  6ED9               	movwf	fsr2l,c
  4268   001364  3439               	rlcf	(pulsing@j+1)^0,w,c
  4269   001366  6EDA               	movwf	fsr2h,c
  4270   001368  5034               	movf	??_pulsing^0,w,c
  4271   00136A  26D9               	addwf	fsr2l,f,c
  4272   00136C  5035               	movf	(??_pulsing+1)^0,w,c
  4273   00136E  22DA               	addwfc	fsr2h,f,c
  4274   001370  0E01               	movlw	1
  4275   001372  6EDE               	movwf	postinc2,c
  4276   001374  0E00               	movlw	0
  4277   001376  6EDD               	movwf	postdec2,c
  4278   001378  4A38               	infsnz	pulsing@j^0,f,c
  4279   00137A  2A39               	incf	(pulsing@j+1)^0,f,c
  4280   00137C  BE39               	btfsc	(pulsing@j+1)^0,7,c
  4281   00137E  EFCA  F009         	goto	u3011
  4282   001382  5039               	movf	(pulsing@j+1)^0,w,c
  4283   001384  E109               	bnz	u3010
  4284   001386  0E05               	movlw	5
  4285   001388  5C38               	subwf	pulsing@j^0,w,c
  4286   00138A  A0D8               	btfss	status,0,c
  4287   00138C  EFCA  F009         	goto	u3011
  4288   001390  EFCC  F009         	goto	u3010
  4289   001394                     u3011:
  4290   001394  EF9F  F009         	goto	l2873
  4291   001398                     u3010:
  4292   001398                     
  4293                           ;main.c: 555:     }
  4294   001398  4A36               	infsnz	pulsing@i_755^0,f,c
  4295   00139A  2A37               	incf	(pulsing@i_755+1)^0,f,c
  4296   00139C  BE37               	btfsc	(pulsing@i_755+1)^0,7,c
  4297   00139E  EFDA  F009         	goto	u3021
  4298   0013A2  5037               	movf	(pulsing@i_755+1)^0,w,c
  4299   0013A4  E109               	bnz	u3020
  4300   0013A6  0E05               	movlw	5
  4301   0013A8  5C36               	subwf	pulsing@i_755^0,w,c
  4302   0013AA  A0D8               	btfss	status,0,c
  4303   0013AC  EFDA  F009         	goto	u3021
  4304   0013B0  EFDC  F009         	goto	u3020
  4305   0013B4                     u3021:
  4306   0013B4  EF9B  F009         	goto	l2867
  4307   0013B8                     u3020:
  4308   0013B8                     
  4309                           ;main.c: 556: }
  4310   0013B8  0E00               	movlw	0
  4311   0013BA  6E07               	movwf	(plane_on@a+1)^0,c
  4312   0013BC  0E00               	movlw	0
  4313   0013BE  6E06               	movwf	plane_on@a^0,c
  4314   0013C0  ECC0  F00E         	call	_plane_on	;wreg free
  4315                           
  4316                           ;main.c: 557: 
  4317   0013C4  0E00               	movlw	0
  4318   0013C6  6E07               	movwf	(plane_on@a+1)^0,c
  4319   0013C8  0E04               	movlw	4
  4320   0013CA  6E06               	movwf	plane_on@a^0,c
  4321   0013CC  ECC0  F00E         	call	_plane_on	;wreg free
  4322   0013D0                     
  4323                           ;main.c: 558: void main(void) {
  4324   0013D0  EC68  F00B         	call	_draw_plane	;wreg free
  4325   0013D4                     
  4326                           ;main.c: 559:     init();
  4327   0013D4  0E41               	movlw	65
  4328   0013D6  6E34               	movwf	??_pulsing^0,c
  4329   0013D8  0EEE               	movlw	238
  4330   0013DA                     u3167:
  4331   0013DA  2EE8               	decfsz	wreg,f,c
  4332   0013DC  D7FE               	bra	u3167
  4333   0013DE  2E34               	decfsz	??_pulsing^0,f,c
  4334   0013E0  D7FC               	bra	u3167
  4335   0013E2  D000               	nop2	
  4336   0013E4                     
  4337                           ;main.c: 560: 
  4338   0013E4  EC23  F00E         	call	_clear_cube	;wreg free
  4339   0013E8                     
  4340                           ;main.c: 561: 
  4341   0013E8  0E00               	movlw	0
  4342   0013EA  6E3D               	movwf	(pulsing@i_757+1)^0,c
  4343   0013EC  0E01               	movlw	1
  4344   0013EE  6E3C               	movwf	pulsing@i_757^0,c
  4345   0013F0                     l2897:
  4346                           
  4347                           ;main.c: 562: 
  4348   0013F0  90D8               	bcf	status,0,c
  4349   0013F2  343C               	rlcf	pulsing@i_757^0,w,c
  4350   0013F4  6ED9               	movwf	fsr2l,c
  4351   0013F6  343D               	rlcf	(pulsing@i_757+1)^0,w,c
  4352   0013F8  6EDA               	movwf	fsr2h,c
  4353   0013FA  0E8A               	movlw	low (_plane+10)
  4354   0013FC  26D9               	addwf	fsr2l,f,c
  4355   0013FE  0E00               	movlw	high (_plane+10)
  4356   001400  22DA               	addwfc	fsr2h,f,c
  4357   001402  0E01               	movlw	1
  4358   001404  6EDE               	movwf	postinc2,c
  4359   001406  0E00               	movlw	0
  4360   001408  6EDD               	movwf	postdec2,c
  4361                           
  4362                           ;main.c: 563: 
  4363   00140A  90D8               	bcf	status,0,c
  4364   00140C  343C               	rlcf	pulsing@i_757^0,w,c
  4365   00140E  6ED9               	movwf	fsr2l,c
  4366   001410  343D               	rlcf	(pulsing@i_757+1)^0,w,c
  4367   001412  6EDA               	movwf	fsr2h,c
  4368   001414  0E94               	movlw	low (_plane+20)
  4369   001416  26D9               	addwf	fsr2l,f,c
  4370   001418  0E00               	movlw	high (_plane+20)
  4371   00141A  22DA               	addwfc	fsr2h,f,c
  4372   00141C  0E01               	movlw	1
  4373   00141E  6EDE               	movwf	postinc2,c
  4374   001420  0E00               	movlw	0
  4375   001422  6EDD               	movwf	postdec2,c
  4376                           
  4377                           ;main.c: 564:     while(1){
  4378   001424  90D8               	bcf	status,0,c
  4379   001426  343C               	rlcf	pulsing@i_757^0,w,c
  4380   001428  6ED9               	movwf	fsr2l,c
  4381   00142A  343D               	rlcf	(pulsing@i_757+1)^0,w,c
  4382   00142C  6EDA               	movwf	fsr2h,c
  4383   00142E  0E9E               	movlw	low (_plane+30)
  4384   001430  26D9               	addwf	fsr2l,f,c
  4385   001432  0E00               	movlw	high (_plane+30)
  4386   001434  22DA               	addwfc	fsr2h,f,c
  4387   001436  0E01               	movlw	1
  4388   001438  6EDE               	movwf	postinc2,c
  4389   00143A  0E00               	movlw	0
  4390   00143C  6EDD               	movwf	postdec2,c
  4391   00143E                     
  4392                           ;main.c: 565: 
  4393   00143E  4A3C               	infsnz	pulsing@i_757^0,f,c
  4394   001440  2A3D               	incf	(pulsing@i_757+1)^0,f,c
  4395   001442  BE3D               	btfsc	(pulsing@i_757+1)^0,7,c
  4396   001444  EF2D  F00A         	goto	u3031
  4397   001448  503D               	movf	(pulsing@i_757+1)^0,w,c
  4398   00144A  E109               	bnz	u3030
  4399   00144C  0E04               	movlw	4
  4400   00144E  5C3C               	subwf	pulsing@i_757^0,w,c
  4401   001450  A0D8               	btfss	status,0,c
  4402   001452  EF2D  F00A         	goto	u3031
  4403   001456  EF2F  F00A         	goto	u3030
  4404   00145A                     u3031:
  4405   00145A  EFF8  F009         	goto	l2897
  4406   00145E                     u3030:
  4407   00145E                     
  4408                           ;main.c: 566:         switch(mode){
  4409   00145E  0E00               	movlw	0
  4410   001460  6E07               	movwf	(plane_on@a+1)^0,c
  4411   001462  0E01               	movlw	1
  4412   001464  6E06               	movwf	plane_on@a^0,c
  4413   001466  ECC0  F00E         	call	_plane_on	;wreg free
  4414                           
  4415                           ;main.c: 567:             case 0:
  4416   00146A  0E00               	movlw	0
  4417   00146C  6E07               	movwf	(plane_on@a+1)^0,c
  4418   00146E  0E02               	movlw	2
  4419   001470  6E06               	movwf	plane_on@a^0,c
  4420   001472  ECC0  F00E         	call	_plane_on	;wreg free
  4421                           
  4422                           ;main.c: 568:                 cubeidle(0);
  4423   001476  0E00               	movlw	0
  4424   001478  6E07               	movwf	(plane_on@a+1)^0,c
  4425   00147A  0E03               	movlw	3
  4426   00147C  6E06               	movwf	plane_on@a^0,c
  4427   00147E  ECC0  F00E         	call	_plane_on	;wreg free
  4428   001482                     
  4429                           ;main.c: 569:                 break;
  4430   001482  EC68  F00B         	call	_draw_plane	;wreg free
  4431   001486                     
  4432                           ;main.c: 570:             case 1:
  4433   001486  0E41               	movlw	65
  4434   001488  6E34               	movwf	??_pulsing^0,c
  4435   00148A  0EEE               	movlw	238
  4436   00148C                     u3177:
  4437   00148C  2EE8               	decfsz	wreg,f,c
  4438   00148E  D7FE               	bra	u3177
  4439   001490  2E34               	decfsz	??_pulsing^0,f,c
  4440   001492  D7FC               	bra	u3177
  4441   001494  D000               	nop2	
  4442   001496                     l2909:
  4443                           
  4444                           ;main.c: 536:         for(int i = 0; i < 5; i++){
  4445   001496  5032               	movf	pulsing@id^0,w,c
  4446   001498  1854               	xorwf	_mode^0,w,c
  4447   00149A  E109               	bnz	u3040
  4448   00149C  5033               	movf	(pulsing@id+1)^0,w,c
  4449   00149E  1855               	xorwf	(_mode+1)^0,w,c
  4450   0014A0  B4D8               	btfsc	status,2,c
  4451   0014A2  EF55  F00A         	goto	u3041
  4452   0014A6  EF57  F00A         	goto	u3040
  4453   0014AA                     u3041:
  4454   0014AA  EF33  F009         	goto	l2829
  4455   0014AE                     u3040:
  4456   0014AE  0012               	return		;funcret
  4457   0014B0                     __end_of_pulsing:
  4458                           	callstack 0
  4459                           
  4460 ;; *************** function _init *****************
  4461 ;; Defined at:
  4462 ;;		line 20 in file "main.c"
  4463 ;; Parameters:    Size  Location     Type
  4464 ;;		None
  4465 ;; Auto vars:     Size  Location     Type
  4466 ;;		None
  4467 ;; Return value:  Size  Location     Type
  4468 ;;                  1    wreg      void 
  4469 ;; Registers used:
  4470 ;;		wreg, status,2
  4471 ;; Tracked objects:
  4472 ;;		On entry : 0/0
  4473 ;;		On exit  : 0/0
  4474 ;;		Unchanged: 0/0
  4475 ;; Data sizes:     COMRAM   BANK0   BANK1   BANK2   BANK3   BANK4   BANK5
  4476 ;;      Params:         0       0       0       0       0       0       0
  4477 ;;      Locals:         0       0       0       0       0       0       0
  4478 ;;      Temps:          0       0       0       0       0       0       0
  4479 ;;      Totals:         0       0       0       0       0       0       0
  4480 ;;Total ram usage:        0 bytes
  4481 ;; Hardware stack levels used: 1
  4482 ;; Hardware stack levels required when called: 1
  4483 ;; This function calls:
  4484 ;;		Nothing
  4485 ;; This function is called by:
  4486 ;;		_main
  4487 ;; This function uses a non-reentrant model
  4488 ;;
  4489                           
  4490                           	psect	text10
  4491   001ED6                     __ptext10:
  4492                           	callstack 0
  4493   001ED6                     _init:
  4494                           	callstack 29
  4495   001ED6                     
  4496                           ;main.c: 21:     ADCON2bits.ACQT = 0b010;
  4497   001ED6  0E00               	movlw	0
  4498   001ED8  6E92               	movwf	146,c	;volatile
  4499                           
  4500                           ;main.c: 22:     ADCON0bits.ADON = 1;
  4501   001EDA  0E00               	movlw	0
  4502   001EDC  6E93               	movwf	147,c	;volatile
  4503                           
  4504                           ;main.c: 23:     ADCON2bits.ADFM = 1;
  4505   001EDE  0E00               	movlw	0
  4506   001EE0  6E94               	movwf	148,c	;volatile
  4507                           
  4508                           ;main.c: 24: 
  4509   001EE2  0E00               	movlw	0
  4510   001EE4  6E95               	movwf	149,c	;volatile
  4511                           
  4512                           ;main.c: 25:     PIE1bits.ADIE = 1;
  4513   001EE6  0E00               	movlw	0
  4514   001EE8  6E96               	movwf	150,c	;volatile
  4515   001EEA                     
  4516                           ;main.c: 26: 
  4517   001EEA  8296               	bsf	150,1,c	;volatile
  4518   001EEC                     
  4519                           ;main.c: 27:     PIR1bits.ADIF = 0;
  4520   001EEC  8496               	bsf	150,2,c	;volatile
  4521   001EEE                     
  4522                           ;main.c: 28: 
  4523   001EEE  8E92               	bsf	146,7,c	;volatile
  4524   001EF0                     
  4525                           ;main.c: 29:     INTCONbits.PEIE = 1;
  4526   001EF0  8C92               	bsf	146,6,c	;volatile
  4527   001EF2                     
  4528                           ;main.c: 30: 
  4529   001EF2  8094               	bsf	148,0,c	;volatile
  4530                           
  4531                           ;main.c: 32:     ADCON0bits.GO = 1;
  4532   001EF4  50D3               	movf	211,w,c	;volatile
  4533   001EF6  0B8F               	andlw	-113
  4534   001EF8  0960               	iorlw	96
  4535   001EFA  6ED3               	movwf	211,c	;volatile
  4536   001EFC                     
  4537                           ;main.c: 33: }
  4538   001EFC  8A92               	bsf	146,5,c	;volatile
  4539                           
  4540                           ;main.c: 34: 
  4541   001EFE  0E09               	movlw	9
  4542   001F00  6EC1               	movwf	193,c	;volatile
  4543                           
  4544                           ;main.c: 35: void draw_plane(){
  4545   001F02  50C2               	movf	194,w,c	;volatile
  4546   001F04  0BC3               	andlw	-61
  4547   001F06  0914               	iorlw	20
  4548   001F08  6EC2               	movwf	194,c	;volatile
  4549                           
  4550                           ;main.c: 36:     LATAbits.LA0 = plane[0][0];
  4551   001F0A  50C0               	movf	192,w,c	;volatile
  4552   001F0C  0BF8               	andlw	-8
  4553   001F0E  0904               	iorlw	4
  4554   001F10  6EC0               	movwf	192,c	;volatile
  4555                           
  4556                           ;main.c: 37:     LATAbits.LA1 = plane[0][1];
  4557   001F12  50C0               	movf	192,w,c	;volatile
  4558   001F14  0BC7               	andlw	-57
  4559   001F16  0910               	iorlw	16
  4560   001F18  6EC0               	movwf	192,c	;volatile
  4561   001F1A                     
  4562                           ;main.c: 38:     LATAbits.LA2 = plane[0][2];
  4563   001F1A  80C2               	bsf	194,0,c	;volatile
  4564   001F1C                     
  4565                           ;main.c: 39:     LATAbits.LA3 = plane[0][3];
  4566   001F1C  8EC0               	bsf	192,7,c	;volatile
  4567   001F1E                     
  4568                           ;main.c: 41: 
  4569   001F1E  8C9D               	bsf	157,6,c	;volatile
  4570   001F20                     
  4571                           ;main.c: 43:     LATCbits.LC2 = plane[1][1];
  4572   001F20  9C9E               	bcf	158,6,c	;volatile
  4573   001F22                     
  4574                           ;main.c: 45:     LATDbits.LD0 = plane[1][3];
  4575   001F22  8CF2               	bsf	242,6,c	;volatile
  4576   001F24                     
  4577                           ;main.c: 47: 
  4578   001F24  8EF2               	bsf	242,7,c	;volatile
  4579   001F26                     
  4580                           ;main.c: 48:     LATBbits.LB0 = plane[2][0];
  4581   001F26  82C2               	bsf	194,1,c	;volatile
  4582   001F28  0012               	return		;funcret
  4583   001F2A                     __end_of_init:
  4584                           	callstack 0
  4585                           
  4586 ;; *************** function _cubeidle *****************
  4587 ;; Defined at:
  4588 ;;		line 514 in file "main.c"
  4589 ;; Parameters:    Size  Location     Type
  4590 ;;  id              2   49[COMRAM] int 
  4591 ;; Auto vars:     Size  Location     Type
  4592 ;;  i               2   59[COMRAM] int 
  4593 ;; Return value:  Size  Location     Type
  4594 ;;                  1    wreg      void 
  4595 ;; Registers used:
  4596 ;;		wreg, fsr2l, fsr2h, status,2, status,0, prodl, prodh, cstack
  4597 ;; Tracked objects:
  4598 ;;		On entry : 0/0
  4599 ;;		On exit  : 0/0
  4600 ;;		Unchanged: 0/0
  4601 ;; Data sizes:     COMRAM   BANK0   BANK1   BANK2   BANK3   BANK4   BANK5
  4602 ;;      Params:         2       0       0       0       0       0       0
  4603 ;;      Locals:         2       0       0       0       0       0       0
  4604 ;;      Temps:          8       0       0       0       0       0       0
  4605 ;;      Totals:        12       0       0       0       0       0       0
  4606 ;;Total ram usage:       12 bytes
  4607 ;; Hardware stack levels used: 1
  4608 ;; Hardware stack levels required when called: 4
  4609 ;; This function calls:
  4610 ;;		_clear_cube
  4611 ;;		_lighton
  4612 ;;		_srand
  4613 ;;		_time
  4614 ;; This function is called by:
  4615 ;;		_main
  4616 ;; This function uses a non-reentrant model
  4617 ;;
  4618                           
  4619                           	psect	text11
  4620   001924                     __ptext11:
  4621                           	callstack 0
  4622   001924                     _cubeidle:
  4623                           	callstack 26
  4624   001924                     
  4625                           ;main.c: 515: 
  4626   001924  0E00               	movlw	0
  4627   001926  6E06               	movwf	time@t^0,c
  4628   001928  0E00               	movlw	0
  4629   00192A  6E07               	movwf	(time@t+1)^0,c
  4630   00192C  ECBF  F00F         	call	_time	;wreg free
  4631   001930  C006  F034         	movff	?_time,??_cubeidle
  4632   001934  C007  F035         	movff	?_time+1,??_cubeidle+1
  4633   001938  C008  F036         	movff	?_time+2,??_cubeidle+2
  4634   00193C  C009  F037         	movff	?_time+3,??_cubeidle+3
  4635   001940  C00A  F038         	movff	?_time+4,??_cubeidle+4
  4636   001944  C00B  F039         	movff	?_time+5,??_cubeidle+5
  4637   001948  C00C  F03A         	movff	?_time+6,??_cubeidle+6
  4638   00194C  C00D  F03B         	movff	?_time+7,??_cubeidle+7
  4639   001950  C034  F00E         	movff	??_cubeidle,srand@s
  4640   001954  C035  F00F         	movff	??_cubeidle+1,srand@s+1
  4641   001958  EC0B  F010         	call	_srand	;wreg free
  4642   00195C                     
  4643                           ;main.c: 516: }
  4644   00195C  EC23  F00E         	call	_clear_cube	;wreg free
  4645   001960                     
  4646                           ;main.c: 517: 
  4647   001960  0E00               	movlw	0
  4648   001962  6E2D               	movwf	(lighton@x+1)^0,c
  4649   001964  0E00               	movlw	0
  4650   001966  6E2C               	movwf	lighton@x^0,c
  4651   001968  0EFF               	movlw	255
  4652   00196A  6E2F               	movwf	(lighton@prev+1)^0,c
  4653   00196C  682E               	setf	lighton@prev^0,c
  4654   00196E  ECFF  F00B         	call	_lighton	;wreg free
  4655                           
  4656                           ;main.c: 518: void pulsing(int id){
  4657   001972  EFFE  F00C         	goto	l2825
  4658   001976                     l2809:
  4659                           
  4660                           ;main.c: 519: 
  4661   001976  0E00               	movlw	0
  4662   001978  6E3D               	movwf	(cubeidle@i+1)^0,c
  4663   00197A  0E01               	movlw	1
  4664   00197C  6E3C               	movwf	cubeidle@i^0,c
  4665   00197E  EFD6  F00C         	goto	l2817
  4666   001982                     l2811:
  4667                           
  4668                           ;main.c: 520:     while(mode == id){
  4669   001982  C03C  F02C         	movff	cubeidle@i,lighton@x
  4670   001986  C03D  F02D         	movff	cubeidle@i+1,lighton@x+1
  4671   00198A  0EFF               	movlw	255
  4672   00198C  243C               	addwf	cubeidle@i^0,w,c
  4673   00198E  6E2E               	movwf	lighton@prev^0,c
  4674   001990  0EFF               	movlw	255
  4675   001992  203D               	addwfc	(cubeidle@i+1)^0,w,c
  4676   001994  6E2F               	movwf	(lighton@prev+1)^0,c
  4677   001996  ECFF  F00B         	call	_lighton	;wreg free
  4678   00199A                     
  4679                           ;main.c: 521:         clear_cube();
  4680   00199A  0E0D               	movlw	13
  4681   00199C  6E34               	movwf	??_cubeidle^0,c
  4682   00199E  0EFC               	movlw	252
  4683   0019A0                     u3187:
  4684   0019A0  2EE8               	decfsz	wreg,f,c
  4685   0019A2  D7FE               	bra	u3187
  4686   0019A4  2E34               	decfsz	??_cubeidle^0,f,c
  4687   0019A6  D7FC               	bra	u3187
  4688   0019A8                     
  4689                           ;main.c: 522:         plane[2][2] = 1;
  4690   0019A8  4A3C               	infsnz	cubeidle@i^0,f,c
  4691   0019AA  2A3D               	incf	(cubeidle@i+1)^0,f,c
  4692   0019AC                     l2817:
  4693   0019AC  BE3D               	btfsc	(cubeidle@i+1)^0,7,c
  4694   0019AE  EFE4  F00C         	goto	u2970
  4695   0019B2  503D               	movf	(cubeidle@i+1)^0,w,c
  4696   0019B4  E107               	bnz	u2971
  4697   0019B6  0E7D               	movlw	125
  4698   0019B8  5C3C               	subwf	cubeidle@i^0,w,c
  4699   0019BA  B0D8               	btfsc	status,0,c
  4700   0019BC  EFE2  F00C         	goto	u2971
  4701   0019C0  EFE4  F00C         	goto	u2970
  4702   0019C4                     u2971:
  4703   0019C4  EFED  F00C         	goto	l2821
  4704   0019C8                     u2970:
  4705   0019C8  5054               	movf	_mode^0,w,c
  4706   0019CA  1055               	iorwf	(_mode+1)^0,w,c
  4707   0019CC  B4D8               	btfsc	status,2,c
  4708   0019CE  EFEB  F00C         	goto	u2981
  4709   0019D2  EFED  F00C         	goto	u2980
  4710   0019D6                     u2981:
  4711   0019D6  EFC1  F00C         	goto	l2811
  4712   0019DA                     u2980:
  4713   0019DA                     l2821:
  4714                           
  4715                           ;main.c: 523:         draw_plane();
  4716   0019DA  0E00               	movlw	0
  4717   0019DC  6E2D               	movwf	(lighton@x+1)^0,c
  4718   0019DE  0E00               	movlw	0
  4719   0019E0  6E2C               	movwf	lighton@x^0,c
  4720   0019E2  0E00               	movlw	0
  4721   0019E4  6E2F               	movwf	(lighton@prev+1)^0,c
  4722   0019E6  0E7C               	movlw	124
  4723   0019E8  6E2E               	movwf	lighton@prev^0,c
  4724   0019EA  ECFF  F00B         	call	_lighton	;wreg free
  4725   0019EE                     
  4726                           ;main.c: 524:         plane_on(2);
  4727   0019EE  0E03               	movlw	3
  4728   0019F0  6E34               	movwf	??_cubeidle^0,c
  4729   0019F2  0E98               	movlw	152
  4730   0019F4                     u3197:
  4731   0019F4  2EE8               	decfsz	wreg,f,c
  4732   0019F6  D7FE               	bra	u3197
  4733   0019F8  2E34               	decfsz	??_cubeidle^0,f,c
  4734   0019FA  D7FC               	bra	u3197
  4735   0019FC                     l2825:
  4736                           
  4737                           ;main.c: 518: void pulsing(int id){
  4738   0019FC  5032               	movf	cubeidle@id^0,w,c
  4739   0019FE  1854               	xorwf	_mode^0,w,c
  4740   001A00  E109               	bnz	u2990
  4741   001A02  5033               	movf	(cubeidle@id+1)^0,w,c
  4742   001A04  1855               	xorwf	(_mode+1)^0,w,c
  4743   001A06  B4D8               	btfsc	status,2,c
  4744   001A08  EF08  F00D         	goto	u2991
  4745   001A0C  EF0A  F00D         	goto	u2990
  4746   001A10                     u2991:
  4747   001A10  EFBB  F00C         	goto	l2809
  4748   001A14                     u2990:
  4749   001A14  0012               	return		;funcret
  4750   001A16                     __end_of_cubeidle:
  4751                           	callstack 0
  4752                           
  4753 ;; *************** function _time *****************
  4754 ;; Defined at:
  4755 ;;		line 6 in file "C:\Program Files\Microchip\xc8\v2.40\pic\sources\c99\common\time.c"
  4756 ;; Parameters:    Size  Location     Type
  4757 ;;  t               2    5[COMRAM] PTR long long 
  4758 ;;		 -> NULL(0), 
  4759 ;; Auto vars:     Size  Location     Type
  4760 ;;		None
  4761 ;; Return value:  Size  Location     Type
  4762 ;;                  8    5[COMRAM] long long 
  4763 ;; Registers used:
  4764 ;;		wreg, fsr2l, fsr2h, status,2, status,0
  4765 ;; Tracked objects:
  4766 ;;		On entry : 0/0
  4767 ;;		On exit  : 0/0
  4768 ;;		Unchanged: 0/0
  4769 ;; Data sizes:     COMRAM   BANK0   BANK1   BANK2   BANK3   BANK4   BANK5
  4770 ;;      Params:         8       0       0       0       0       0       0
  4771 ;;      Locals:         0       0       0       0       0       0       0
  4772 ;;      Temps:          0       0       0       0       0       0       0
  4773 ;;      Totals:         8       0       0       0       0       0       0
  4774 ;;Total ram usage:        8 bytes
  4775 ;; Hardware stack levels used: 1
  4776 ;; Hardware stack levels required when called: 1
  4777 ;; This function calls:
  4778 ;;		Nothing
  4779 ;; This function is called by:
  4780 ;;		_random_pattern
  4781 ;;		_cubeidle
  4782 ;; This function uses a non-reentrant model
  4783 ;;
  4784                           
  4785                           	psect	text12
  4786   001F7E                     __ptext12:
  4787                           	callstack 0
  4788   001F7E                     _time:
  4789                           	callstack 28
  4790   001F7E  5006               	movf	time@t^0,w,c
  4791   001F80  1007               	iorwf	(time@t+1)^0,w,c
  4792   001F82  B4D8               	btfsc	status,2,c
  4793   001F84  EFC6  F00F         	goto	u2101
  4794   001F88  EFC8  F00F         	goto	u2100
  4795   001F8C                     u2101:
  4796   001F8C  EFDC  F00F         	goto	l2259
  4797   001F90                     u2100:
  4798   001F90  C006  FFD9         	movff	time@t,fsr2l
  4799   001F94  C007  FFDA         	movff	time@t+1,fsr2h
  4800   001F98  0EFF               	movlw	255
  4801   001F9A  6EDE               	movwf	postinc2,c
  4802   001F9C  0EFF               	movlw	255
  4803   001F9E  6EDE               	movwf	postinc2,c
  4804   001FA0  0EFF               	movlw	255
  4805   001FA2  6EDE               	movwf	postinc2,c
  4806   001FA4  0EFF               	movlw	255
  4807   001FA6  6EDE               	movwf	postinc2,c
  4808   001FA8  0EFF               	movlw	255
  4809   001FAA  6EDE               	movwf	postinc2,c
  4810   001FAC  0EFF               	movlw	255
  4811   001FAE  6EDE               	movwf	postinc2,c
  4812   001FB0  0EFF               	movlw	255
  4813   001FB2  6EDE               	movwf	postinc2,c
  4814   001FB4  0EFF               	movlw	255
  4815   001FB6  6EDD               	movwf	postdec2,c
  4816   001FB8                     l2259:
  4817   001FB8  6806               	setf	?_time^0,c
  4818   001FBA  6807               	setf	(?_time+1)^0,c
  4819   001FBC  6808               	setf	(?_time+2)^0,c
  4820   001FBE  6809               	setf	(?_time+3)^0,c
  4821   001FC0  680A               	setf	(?_time+4)^0,c
  4822   001FC2  680B               	setf	(?_time+5)^0,c
  4823   001FC4  680C               	setf	(?_time+6)^0,c
  4824   001FC6  680D               	setf	(?_time+7)^0,c
  4825   001FC8  0012               	return		;funcret
  4826   001FCA                     __end_of_time:
  4827                           	callstack 0
  4828                           
  4829 ;; *************** function _srand *****************
  4830 ;; Defined at:
  4831 ;;		line 6 in file "C:\Program Files\Microchip\xc8\v2.40\pic\sources\c99\common\rand.c"
  4832 ;; Parameters:    Size  Location     Type
  4833 ;;  s               2   13[COMRAM] unsigned int 
  4834 ;; Auto vars:     Size  Location     Type
  4835 ;;		None
  4836 ;; Return value:  Size  Location     Type
  4837 ;;                  1    wreg      void 
  4838 ;; Registers used:
  4839 ;;		wreg, status,2, status,0
  4840 ;; Tracked objects:
  4841 ;;		On entry : 0/0
  4842 ;;		On exit  : 0/0
  4843 ;;		Unchanged: 0/0
  4844 ;; Data sizes:     COMRAM   BANK0   BANK1   BANK2   BANK3   BANK4   BANK5
  4845 ;;      Params:         2       0       0       0       0       0       0
  4846 ;;      Locals:         0       0       0       0       0       0       0
  4847 ;;      Temps:          2       0       0       0       0       0       0
  4848 ;;      Totals:         4       0       0       0       0       0       0
  4849 ;;Total ram usage:        4 bytes
  4850 ;; Hardware stack levels used: 1
  4851 ;; Hardware stack levels required when called: 1
  4852 ;; This function calls:
  4853 ;;		Nothing
  4854 ;; This function is called by:
  4855 ;;		_random_pattern
  4856 ;;		_cubeidle
  4857 ;; This function uses a non-reentrant model
  4858 ;;
  4859                           
  4860                           	psect	text13
  4861   002016                     __ptext13:
  4862                           	callstack 0
  4863   002016                     _srand:
  4864                           	callstack 28
  4865   002016  0EFF               	movlw	255
  4866   002018  240E               	addwf	srand@s^0,w,c
  4867   00201A  6E10               	movwf	??_srand^0,c
  4868   00201C  0EFF               	movlw	255
  4869   00201E  200F               	addwfc	(srand@s+1)^0,w,c
  4870   002020  6E11               	movwf	(??_srand+1)^0,c
  4871   002022  C010  F056         	movff	??_srand,_seed
  4872   002026  C011  F057         	movff	??_srand+1,_seed+1
  4873   00202A  6A58               	clrf	(_seed+2)^0,c
  4874   00202C  6A59               	clrf	(_seed+3)^0,c
  4875   00202E  0012               	return		;funcret
  4876   002030                     __end_of_srand:
  4877                           	callstack 0
  4878                           
  4879 ;; *************** function _lighton *****************
  4880 ;; Defined at:
  4881 ;;		line 151 in file "main.c"
  4882 ;; Parameters:    Size  Location     Type
  4883 ;;  x               2   43[COMRAM] int 
  4884 ;;  prev            2   45[COMRAM] int 
  4885 ;; Auto vars:     Size  Location     Type
  4886 ;;		None
  4887 ;; Return value:  Size  Location     Type
  4888 ;;                  1    wreg      void 
  4889 ;; Registers used:
  4890 ;;		wreg, fsr2l, fsr2h, status,2, status,0, prodl, prodh, cstack
  4891 ;; Tracked objects:
  4892 ;;		On entry : 0/0
  4893 ;;		On exit  : 0/0
  4894 ;;		Unchanged: 0/0
  4895 ;; Data sizes:     COMRAM   BANK0   BANK1   BANK2   BANK3   BANK4   BANK5
  4896 ;;      Params:         4       0       0       0       0       0       0
  4897 ;;      Locals:         0       0       0       0       0       0       0
  4898 ;;      Temps:          2       0       0       0       0       0       0
  4899 ;;      Totals:         6       0       0       0       0       0       0
  4900 ;;Total ram usage:        6 bytes
  4901 ;; Hardware stack levels used: 1
  4902 ;; Hardware stack levels required when called: 3
  4903 ;; This function calls:
  4904 ;;		___awdiv
  4905 ;;		___awmod
  4906 ;;		___wmul
  4907 ;;		_draw_plane
  4908 ;;		_set_plane
  4909 ;; This function is called by:
  4910 ;;		_random_pattern
  4911 ;;		_cubeidle
  4912 ;; This function uses a non-reentrant model
  4913 ;;
  4914                           
  4915                           	psect	text14
  4916   0017FE                     __ptext14:
  4917                           	callstack 0
  4918   0017FE                     _lighton:
  4919                           	callstack 26
  4920   0017FE                     
  4921                           ;main.c: 152:     clear_plane();
  4922   0017FE  C02C  F01E         	movff	lighton@x,___awdiv@dividend
  4923   001802  C02D  F01F         	movff	lighton@x+1,___awdiv@dividend+1
  4924   001806  0E00               	movlw	0
  4925   001808  6E21               	movwf	(___awdiv@divisor+1)^0,c
  4926   00180A  0E19               	movlw	25
  4927   00180C  6E20               	movwf	___awdiv@divisor^0,c
  4928   00180E  EC0B  F00D         	call	___awdiv	;wreg free
  4929   001812  C01E  F026         	movff	?___awdiv,set_plane@a
  4930   001816  C01F  F027         	movff	?___awdiv+1,set_plane@a+1
  4931   00181A  EC18  F010         	call	_set_plane	;wreg free
  4932   00181E                     
  4933                           ;main.c: 153:     srand(time(((void*)0)));
  4934   00181E  282E               	incf	lighton@prev^0,w,c
  4935   001820  E108               	bnz	u1970
  4936   001822  282F               	incf	(lighton@prev+1)^0,w,c
  4937   001824  B4D8               	btfsc	status,2,c
  4938   001826  EF17  F00C         	goto	u1971
  4939   00182A  EF19  F00C         	goto	u1970
  4940   00182E                     u1971:
  4941   00182E  EF54  F00C         	goto	l93
  4942   001832                     u1970:
  4943   001832  0E00               	movlw	0
  4944   001834  6E21               	movwf	(___awdiv@divisor+1)^0,c
  4945   001836  0E05               	movlw	5
  4946   001838  6E20               	movwf	___awdiv@divisor^0,c
  4947   00183A  0E00               	movlw	0
  4948   00183C  6E1B               	movwf	(___awmod@divisor+1)^0,c
  4949   00183E  0E19               	movlw	25
  4950   001840  6E1A               	movwf	___awmod@divisor^0,c
  4951   001842  C02E  F018         	movff	lighton@prev,___awmod@dividend
  4952   001846  C02F  F019         	movff	lighton@prev+1,___awmod@dividend+1
  4953   00184A  ECCB  F00D         	call	___awmod	;wreg free
  4954   00184E  C018  F01E         	movff	?___awmod,___awdiv@dividend
  4955   001852  C019  F01F         	movff	?___awmod+1,___awdiv@dividend+1
  4956   001856  EC0B  F00D         	call	___awdiv	;wreg free
  4957   00185A  C01E  F026         	movff	?___awdiv,___wmul@multiplier
  4958   00185E  C01F  F027         	movff	?___awdiv+1,___wmul@multiplier+1
  4959   001862  0E00               	movlw	0
  4960   001864  6E29               	movwf	(___wmul@multiplicand+1)^0,c
  4961   001866  0E0A               	movlw	10
  4962   001868  6E28               	movwf	___wmul@multiplicand^0,c
  4963   00186A  ECF8  F00F         	call	___wmul	;wreg free
  4964   00186E  0E80               	movlw	low _plane
  4965   001870  2426               	addwf	?___wmul^0,w,c
  4966   001872  6E30               	movwf	??_lighton^0,c
  4967   001874  0E00               	movlw	high _plane
  4968   001876  2027               	addwfc	(?___wmul+1)^0,w,c
  4969   001878  6E31               	movwf	(??_lighton+1)^0,c
  4970   00187A  C02E  F018         	movff	lighton@prev,___awmod@dividend
  4971   00187E  C02F  F019         	movff	lighton@prev+1,___awmod@dividend+1
  4972   001882  0E00               	movlw	0
  4973   001884  6E1B               	movwf	(___awmod@divisor+1)^0,c
  4974   001886  0E05               	movlw	5
  4975   001888  6E1A               	movwf	___awmod@divisor^0,c
  4976   00188A  ECCB  F00D         	call	___awmod	;wreg free
  4977   00188E  90D8               	bcf	status,0,c
  4978   001890  3618               	rlcf	?___awmod^0,f,c
  4979   001892  3619               	rlcf	(?___awmod+1)^0,f,c
  4980   001894  5018               	movf	?___awmod^0,w,c
  4981   001896  2430               	addwf	??_lighton^0,w,c
  4982   001898  6ED9               	movwf	fsr2l,c
  4983   00189A  5019               	movf	(?___awmod+1)^0,w,c
  4984   00189C  2031               	addwfc	(??_lighton+1)^0,w,c
  4985   00189E  6EDA               	movwf	fsr2h,c
  4986   0018A0  0E00               	movlw	0
  4987   0018A2  6EDE               	movwf	postinc2,c
  4988   0018A4  0E00               	movlw	0
  4989   0018A6  6EDD               	movwf	postdec2,c
  4990   0018A8                     l93:
  4991                           
  4992                           ;main.c: 154:     int x = 0, r = 0, prevr, prevx = -1;
  4993   0018A8  0E00               	movlw	0
  4994   0018AA  6E21               	movwf	(___awdiv@divisor+1)^0,c
  4995   0018AC  0E05               	movlw	5
  4996   0018AE  6E20               	movwf	___awdiv@divisor^0,c
  4997   0018B0  0E00               	movlw	0
  4998   0018B2  6E1B               	movwf	(___awmod@divisor+1)^0,c
  4999   0018B4  0E19               	movlw	25
  5000   0018B6  6E1A               	movwf	___awmod@divisor^0,c
  5001   0018B8  C02C  F018         	movff	lighton@x,___awmod@dividend
  5002   0018BC  C02D  F019         	movff	lighton@x+1,___awmod@dividend+1
  5003   0018C0  ECCB  F00D         	call	___awmod	;wreg free
  5004   0018C4  C018  F01E         	movff	?___awmod,___awdiv@dividend
  5005   0018C8  C019  F01F         	movff	?___awmod+1,___awdiv@dividend+1
  5006   0018CC  EC0B  F00D         	call	___awdiv	;wreg free
  5007   0018D0  C01E  F026         	movff	?___awdiv,___wmul@multiplier
  5008   0018D4  C01F  F027         	movff	?___awdiv+1,___wmul@multiplier+1
  5009   0018D8  0E00               	movlw	0
  5010   0018DA  6E29               	movwf	(___wmul@multiplicand+1)^0,c
  5011   0018DC  0E0A               	movlw	10
  5012   0018DE  6E28               	movwf	___wmul@multiplicand^0,c
  5013   0018E0  ECF8  F00F         	call	___wmul	;wreg free
  5014   0018E4  0E80               	movlw	low _plane
  5015   0018E6  2426               	addwf	?___wmul^0,w,c
  5016   0018E8  6E30               	movwf	??_lighton^0,c
  5017   0018EA  0E00               	movlw	high _plane
  5018   0018EC  2027               	addwfc	(?___wmul+1)^0,w,c
  5019   0018EE  6E31               	movwf	(??_lighton+1)^0,c
  5020   0018F0  C02C  F018         	movff	lighton@x,___awmod@dividend
  5021   0018F4  C02D  F019         	movff	lighton@x+1,___awmod@dividend+1
  5022   0018F8  0E00               	movlw	0
  5023   0018FA  6E1B               	movwf	(___awmod@divisor+1)^0,c
  5024   0018FC  0E05               	movlw	5
  5025   0018FE  6E1A               	movwf	___awmod@divisor^0,c
  5026   001900  ECCB  F00D         	call	___awmod	;wreg free
  5027   001904  90D8               	bcf	status,0,c
  5028   001906  3618               	rlcf	?___awmod^0,f,c
  5029   001908  3619               	rlcf	(?___awmod+1)^0,f,c
  5030   00190A  5018               	movf	?___awmod^0,w,c
  5031   00190C  2430               	addwf	??_lighton^0,w,c
  5032   00190E  6ED9               	movwf	fsr2l,c
  5033   001910  5019               	movf	(?___awmod+1)^0,w,c
  5034   001912  2031               	addwfc	(??_lighton+1)^0,w,c
  5035   001914  6EDA               	movwf	fsr2h,c
  5036   001916  0E01               	movlw	1
  5037   001918  6EDE               	movwf	postinc2,c
  5038   00191A  0E00               	movlw	0
  5039   00191C  6EDD               	movwf	postdec2,c
  5040   00191E                     
  5041                           ;main.c: 155:     lighton(0, prevx);
  5042   00191E  EC68  F00B         	call	_draw_plane	;wreg free
  5043   001922  0012               	return		;funcret
  5044   001924                     __end_of_lighton:
  5045                           	callstack 0
  5046                           
  5047 ;; *************** function _set_plane *****************
  5048 ;; Defined at:
  5049 ;;		line 122 in file "main.c"
  5050 ;; Parameters:    Size  Location     Type
  5051 ;;  a               2   37[COMRAM] int 
  5052 ;; Auto vars:     Size  Location     Type
  5053 ;;		None
  5054 ;; Return value:  Size  Location     Type
  5055 ;;                  1    wreg      void 
  5056 ;; Registers used:
  5057 ;;		wreg, status,2, status,0, cstack
  5058 ;; Tracked objects:
  5059 ;;		On entry : 0/0
  5060 ;;		On exit  : 0/0
  5061 ;;		Unchanged: 0/0
  5062 ;; Data sizes:     COMRAM   BANK0   BANK1   BANK2   BANK3   BANK4   BANK5
  5063 ;;      Params:         2       0       0       0       0       0       0
  5064 ;;      Locals:         0       0       0       0       0       0       0
  5065 ;;      Temps:          0       0       0       0       0       0       0
  5066 ;;      Totals:         2       0       0       0       0       0       0
  5067 ;;Total ram usage:        2 bytes
  5068 ;; Hardware stack levels used: 1
  5069 ;; Hardware stack levels required when called: 2
  5070 ;; This function calls:
  5071 ;;		_plane_on
  5072 ;; This function is called by:
  5073 ;;		_lighton
  5074 ;;		_rainfall
  5075 ;;		_scan
  5076 ;;		_speedup
  5077 ;;		_slash
  5078 ;; This function uses a non-reentrant model
  5079 ;;
  5080                           
  5081                           	psect	text15
  5082   002030                     __ptext15:
  5083                           	callstack 0
  5084   002030                     _set_plane:
  5085                           	callstack 27
  5086   002030                     
  5087                           ;main.c: 123:     TRISE = 0;
  5088   002030  8296               	bsf	150,1,c	;volatile
  5089                           
  5090                           ;main.c: 124:     TRISEbits.TRISE1 = 1;
  5091   002032  8496               	bsf	150,2,c	;volatile
  5092                           
  5093                           ;main.c: 125:     TRISEbits.TRISE2 = 1;
  5094   002034  8E92               	bsf	146,7,c	;volatile
  5095                           
  5096                           ;main.c: 126:     TRISAbits.TRISA7 = 1;
  5097   002036  8C92               	bsf	146,6,c	;volatile
  5098                           
  5099                           ;main.c: 127:     TRISAbits.TRISA6 = 1;
  5100   002038  8094               	bsf	148,0,c	;volatile
  5101   00203A                     
  5102                           ;main.c: 128:     TRISCbits.TRISC0 = 1;
  5103   00203A  C026  F006         	movff	set_plane@a,plane_on@a
  5104   00203E  C027  F007         	movff	set_plane@a+1,plane_on@a+1
  5105   002042  ECC0  F00E         	call	_plane_on	;wreg free
  5106   002046  0012               	return		;funcret
  5107   002048                     __end_of_set_plane:
  5108                           	callstack 0
  5109                           
  5110 ;; *************** function _plane_on *****************
  5111 ;; Defined at:
  5112 ;;		line 90 in file "main.c"
  5113 ;; Parameters:    Size  Location     Type
  5114 ;;  a               2    5[COMRAM] int 
  5115 ;; Auto vars:     Size  Location     Type
  5116 ;;		None
  5117 ;; Return value:  Size  Location     Type
  5118 ;;                  1    wreg      void 
  5119 ;; Registers used:
  5120 ;;		wreg, status,2, status,0
  5121 ;; Tracked objects:
  5122 ;;		On entry : 0/0
  5123 ;;		On exit  : 0/0
  5124 ;;		Unchanged: 0/0
  5125 ;; Data sizes:     COMRAM   BANK0   BANK1   BANK2   BANK3   BANK4   BANK5
  5126 ;;      Params:         2       0       0       0       0       0       0
  5127 ;;      Locals:         0       0       0       0       0       0       0
  5128 ;;      Temps:          2       0       0       0       0       0       0
  5129 ;;      Totals:         4       0       0       0       0       0       0
  5130 ;;Total ram usage:        4 bytes
  5131 ;; Hardware stack levels used: 1
  5132 ;; Hardware stack levels required when called: 1
  5133 ;; This function calls:
  5134 ;;		Nothing
  5135 ;; This function is called by:
  5136 ;;		_set_plane
  5137 ;;		_scan
  5138 ;;		_pulsing
  5139 ;; This function uses a non-reentrant model
  5140 ;;
  5141                           
  5142                           	psect	text16
  5143   001D80                     __ptext16:
  5144                           	callstack 0
  5145   001D80                     _plane_on:
  5146                           	callstack 27
  5147   001D80                     
  5148                           ;main.c: 91:             break;
  5149   001D80  EFDD  F00E         	goto	l2031
  5150   001D84                     l73:
  5151                           
  5152                           ;main.c: 93:             TRISCbits.TRISC0 = 0;
  5153   001D84  9296               	bcf	150,1,c	;volatile
  5154                           
  5155                           ;main.c: 94:             LATCbits.LC0 = 1 ;
  5156   001D86  828D               	bsf	141,1,c	;volatile
  5157                           
  5158                           ;main.c: 95:             break;
  5159   001D88  EFFF  F00E         	goto	l80
  5160   001D8C                     l75:
  5161                           
  5162                           ;main.c: 97:             TRISEbits.TRISE1 = 1;
  5163   001D8C  9496               	bcf	150,2,c	;volatile
  5164                           
  5165                           ;main.c: 98:             TRISEbits.TRISE2 = 1;
  5166   001D8E  848D               	bsf	141,2,c	;volatile
  5167                           
  5168                           ;main.c: 99:             TRISAbits.TRISA7 = 1;
  5169   001D90  EFFF  F00E         	goto	l80
  5170   001D94                     l76:
  5171                           
  5172                           ;main.c: 101:             TRISCbits.TRISC0 = 1;
  5173   001D94  9E92               	bcf	146,7,c	;volatile
  5174                           
  5175                           ;main.c: 102:             break;
  5176   001D96  8E89               	bsf	137,7,c	;volatile
  5177                           
  5178                           ;main.c: 103:     }
  5179   001D98  EFFF  F00E         	goto	l80
  5180   001D9C                     l77:
  5181                           
  5182                           ;main.c: 105: 
  5183   001D9C  9C92               	bcf	146,6,c	;volatile
  5184                           
  5185                           ;main.c: 106: void set_plane(int a){
  5186   001D9E  8C89               	bsf	137,6,c	;volatile
  5187                           
  5188                           ;main.c: 107:     TRISEbits.TRISE1 = 1;
  5189   001DA0  EFFF  F00E         	goto	l80
  5190   001DA4                     l78:
  5191                           
  5192                           ;main.c: 109:     TRISAbits.TRISA7 = 1;
  5193   001DA4  9094               	bcf	148,0,c	;volatile
  5194                           
  5195                           ;main.c: 110:     TRISAbits.TRISA6 = 1;
  5196   001DA6  808B               	bsf	139,0,c	;volatile
  5197                           
  5198                           ;main.c: 111:     TRISCbits.TRISC0 = 1;
  5199   001DA8  EFFF  F00E         	goto	l80
  5200   001DAC                     l79:
  5201                           
  5202                           ;main.c: 113: }
  5203   001DAC  8296               	bsf	150,1,c	;volatile
  5204                           
  5205                           ;main.c: 114: 
  5206   001DAE  8496               	bsf	150,2,c	;volatile
  5207                           
  5208                           ;main.c: 115: 
  5209   001DB0  8E92               	bsf	146,7,c	;volatile
  5210                           
  5211                           ;main.c: 116: 
  5212   001DB2  8C92               	bsf	146,6,c	;volatile
  5213                           
  5214                           ;main.c: 117: void clear_cube(){
  5215   001DB4  8094               	bsf	148,0,c	;volatile
  5216                           
  5217                           ;main.c: 118: 
  5218   001DB6  EFFF  F00E         	goto	l80
  5219   001DBA                     l2031:
  5220   001DBA  C006  F008         	movff	plane_on@a,??_plane_on
  5221   001DBE  C007  F009         	movff	plane_on@a+1,??_plane_on+1
  5222                           
  5223                           ; Switch on 2 bytes has been partitioned into a top level switch of size 1, and 1 sub-sw
      +                          itches
  5224                           ; Switch size 1, requested type "simple"
  5225                           ; Number of cases is 1, Range of values is 0 to 0
  5226                           ; switch strategies available:
  5227                           ; Name         Instructions Cycles
  5228                           ; simple_byte            4     3 (average)
  5229                           ;	Chosen strategy is simple_byte
  5230   001DC2  5009               	movf	(??_plane_on+1)^0,w,c
  5231   001DC4  0A00               	xorlw	0	; case 0
  5232   001DC6  B4D8               	btfsc	status,2,c
  5233   001DC8  EFE8  F00E         	goto	l2999
  5234   001DCC  EFD6  F00E         	goto	l79
  5235   001DD0                     l2999:
  5236                           
  5237                           ; Switch size 1, requested type "simple"
  5238                           ; Number of cases is 5, Range of values is 0 to 4
  5239                           ; switch strategies available:
  5240                           ; Name         Instructions Cycles
  5241                           ; simple_byte           16     9 (average)
  5242                           ;	Chosen strategy is simple_byte
  5243   001DD0  5008               	movf	??_plane_on^0,w,c
  5244   001DD2  0A00               	xorlw	0	; case 0
  5245   001DD4  B4D8               	btfsc	status,2,c
  5246   001DD6  EFC2  F00E         	goto	l73
  5247   001DDA  0A01               	xorlw	1	; case 1
  5248   001DDC  B4D8               	btfsc	status,2,c
  5249   001DDE  EFC6  F00E         	goto	l75
  5250   001DE2  0A03               	xorlw	3	; case 2
  5251   001DE4  B4D8               	btfsc	status,2,c
  5252   001DE6  EFCA  F00E         	goto	l76
  5253   001DEA  0A01               	xorlw	1	; case 3
  5254   001DEC  B4D8               	btfsc	status,2,c
  5255   001DEE  EFCE  F00E         	goto	l77
  5256   001DF2  0A07               	xorlw	7	; case 4
  5257   001DF4  B4D8               	btfsc	status,2,c
  5258   001DF6  EFD2  F00E         	goto	l78
  5259   001DFA  EFD6  F00E         	goto	l79
  5260   001DFE                     l80:
  5261   001DFE  0012               	return		;funcret
  5262   001E00                     __end_of_plane_on:
  5263                           	callstack 0
  5264                           
  5265 ;; *************** function _draw_plane *****************
  5266 ;; Defined at:
  5267 ;;		line 51 in file "main.c"
  5268 ;; Parameters:    Size  Location     Type
  5269 ;;		None
  5270 ;; Auto vars:     Size  Location     Type
  5271 ;;		None
  5272 ;; Return value:  Size  Location     Type
  5273 ;;                  1    wreg      void 
  5274 ;; Registers used:
  5275 ;;		None
  5276 ;; Tracked objects:
  5277 ;;		On entry : 0/0
  5278 ;;		On exit  : 0/0
  5279 ;;		Unchanged: 0/0
  5280 ;; Data sizes:     COMRAM   BANK0   BANK1   BANK2   BANK3   BANK4   BANK5
  5281 ;;      Params:         0       0       0       0       0       0       0
  5282 ;;      Locals:         0       0       0       0       0       0       0
  5283 ;;      Temps:          0       0       0       0       0       0       0
  5284 ;;      Totals:         0       0       0       0       0       0       0
  5285 ;;Total ram usage:        0 bytes
  5286 ;; Hardware stack levels used: 1
  5287 ;; Hardware stack levels required when called: 1
  5288 ;; This function calls:
  5289 ;;		Nothing
  5290 ;; This function is called by:
  5291 ;;		_clear_plane
  5292 ;;		_lighton
  5293 ;;		_rainfall
  5294 ;;		_scan
  5295 ;;		_speedup
  5296 ;;		_pulsing
  5297 ;;		_slash
  5298 ;; This function uses a non-reentrant model
  5299 ;;
  5300                           
  5301                           	psect	text17
  5302   0016D0                     __ptext17:
  5303                           	callstack 0
  5304   0016D0                     _draw_plane:
  5305                           	callstack 28
  5306   0016D0                     
  5307                           ;main.c: 52:     LATBbits.LB4 = plane[2][4];
  5308   0016D0  0100               	movlb	0	; () banked
  5309   0016D2  B180               	btfsc	_plane& (0+255),0,b
  5310   0016D4  D002               	bra	u1545
  5311   0016D6  9089               	bcf	137,0,c	;volatile
  5312   0016D8  D001               	bra	u1546
  5313   0016DA                     u1545:
  5314   0016DA  8089               	bsf	137,0,c	;volatile
  5315   0016DC                     u1546:
  5316                           
  5317                           ;main.c: 53: 
  5318   0016DC  0100               	movlb	0	; () banked
  5319   0016DE  B182               	btfsc	(_plane+2)& (0+255),0,b
  5320   0016E0  D002               	bra	u1555
  5321   0016E2  9289               	bcf	137,1,c	;volatile
  5322   0016E4  D001               	bra	u1556
  5323   0016E6                     u1555:
  5324   0016E6  8289               	bsf	137,1,c	;volatile
  5325   0016E8                     u1556:
  5326                           
  5327                           ;main.c: 54:     LATCbits.LC7 = plane[3][0];
  5328   0016E8  0100               	movlb	0	; () banked
  5329   0016EA  B184               	btfsc	(_plane+4)& (0+255),0,b
  5330   0016EC  D002               	bra	u1565
  5331   0016EE  9489               	bcf	137,2,c	;volatile
  5332   0016F0  D001               	bra	u1566
  5333   0016F2                     u1565:
  5334   0016F2  8489               	bsf	137,2,c	;volatile
  5335   0016F4                     u1566:
  5336                           
  5337                           ;main.c: 55:     LATDbits.LD4 = plane[3][1];
  5338   0016F4  0100               	movlb	0	; () banked
  5339   0016F6  B186               	btfsc	(_plane+6)& (0+255),0,b
  5340   0016F8  D002               	bra	u1575
  5341   0016FA  9689               	bcf	137,3,c	;volatile
  5342   0016FC  D001               	bra	u1576
  5343   0016FE                     u1575:
  5344   0016FE  8689               	bsf	137,3,c	;volatile
  5345   001700                     u1576:
  5346                           
  5347                           ;main.c: 56:     LATDbits.LD5 = plane[3][2];
  5348   001700  0100               	movlb	0	; () banked
  5349   001702  B188               	btfsc	(_plane+8)& (0+255),0,b
  5350   001704  D002               	bra	u1585
  5351   001706  9889               	bcf	137,4,c	;volatile
  5352   001708  D001               	bra	u1586
  5353   00170A                     u1585:
  5354   00170A  8889               	bsf	137,4,c	;volatile
  5355   00170C                     u1586:
  5356                           
  5357                           ;main.c: 58:     LATDbits.LD7 = plane[3][4];
  5358   00170C  0100               	movlb	0	; () banked
  5359   00170E  B18A               	btfsc	(_plane+10)& (0+255),0,b
  5360   001710  D002               	bra	u1595
  5361   001712  928B               	bcf	139,1,c	;volatile
  5362   001714  D001               	bra	u1596
  5363   001716                     u1595:
  5364   001716  828B               	bsf	139,1,c	;volatile
  5365   001718                     u1596:
  5366                           
  5367                           ;main.c: 59: 
  5368   001718  0100               	movlb	0	; () banked
  5369   00171A  B18C               	btfsc	(_plane+12)& (0+255),0,b
  5370   00171C  D002               	bra	u1605
  5371   00171E  948B               	bcf	139,2,c	;volatile
  5372   001720  D001               	bra	u1606
  5373   001722                     u1605:
  5374   001722  848B               	bsf	139,2,c	;volatile
  5375   001724                     u1606:
  5376                           
  5377                           ;main.c: 60:     LATDbits.LD2 = plane[4][0];
  5378   001724  0100               	movlb	0	; () banked
  5379   001726  B18E               	btfsc	(_plane+14)& (0+255),0,b
  5380   001728  D002               	bra	u1615
  5381   00172A  968B               	bcf	139,3,c	;volatile
  5382   00172C  D001               	bra	u1616
  5383   00172E                     u1615:
  5384   00172E  868B               	bsf	139,3,c	;volatile
  5385   001730                     u1616:
  5386                           
  5387                           ;main.c: 61:     LATDbits.LD3 = plane[4][1];
  5388   001730  0100               	movlb	0	; () banked
  5389   001732  B190               	btfsc	(_plane+16)& (0+255),0,b
  5390   001734  D002               	bra	u1625
  5391   001736  908C               	bcf	140,0,c	;volatile
  5392   001738  D001               	bra	u1626
  5393   00173A                     u1625:
  5394   00173A  808C               	bsf	140,0,c	;volatile
  5395   00173C                     u1626:
  5396                           
  5397                           ;main.c: 62:     LATCbits.LC4 = plane[4][2];
  5398   00173C  0100               	movlb	0	; () banked
  5399   00173E  B192               	btfsc	(_plane+18)& (0+255),0,b
  5400   001740  D002               	bra	u1635
  5401   001742  928C               	bcf	140,1,c	;volatile
  5402   001744  D001               	bra	u1636
  5403   001746                     u1635:
  5404   001746  828C               	bsf	140,1,c	;volatile
  5405   001748                     u1636:
  5406                           
  5407                           ;main.c: 64:     LATCbits.LC6 = plane[4][4];
  5408   001748  0100               	movlb	0	; () banked
  5409   00174A  B194               	btfsc	(_plane+20)& (0+255),0,b
  5410   00174C  D002               	bra	u1645
  5411   00174E  908A               	bcf	138,0,c	;volatile
  5412   001750  D001               	bra	u1646
  5413   001752                     u1645:
  5414   001752  808A               	bsf	138,0,c	;volatile
  5415   001754                     u1646:
  5416                           
  5417                           ;main.c: 65: }
  5418   001754  0100               	movlb	0	; () banked
  5419   001756  B196               	btfsc	(_plane+22)& (0+255),0,b
  5420   001758  D002               	bra	u1655
  5421   00175A  928A               	bcf	138,1,c	;volatile
  5422   00175C  D001               	bra	u1656
  5423   00175E                     u1655:
  5424   00175E  828A               	bsf	138,1,c	;volatile
  5425   001760                     u1656:
  5426                           
  5427                           ;main.c: 66: 
  5428   001760  0100               	movlb	0	; () banked
  5429   001762  B198               	btfsc	(_plane+24)& (0+255),0,b
  5430   001764  D002               	bra	u1665
  5431   001766  948A               	bcf	138,2,c	;volatile
  5432   001768  D001               	bra	u1666
  5433   00176A                     u1665:
  5434   00176A  848A               	bsf	138,2,c	;volatile
  5435   00176C                     u1666:
  5436                           
  5437                           ;main.c: 67: void clear_plane(){
  5438   00176C  0100               	movlb	0	; () banked
  5439   00176E  B19A               	btfsc	(_plane+26)& (0+255),0,b
  5440   001770  D002               	bra	u1675
  5441   001772  968A               	bcf	138,3,c	;volatile
  5442   001774  D001               	bra	u1676
  5443   001776                     u1675:
  5444   001776  868A               	bsf	138,3,c	;volatile
  5445   001778                     u1676:
  5446                           
  5447                           ;main.c: 68:     for(int i = 0; i < 5; i++)
  5448   001778  0100               	movlb	0	; () banked
  5449   00177A  B19C               	btfsc	(_plane+28)& (0+255),0,b
  5450   00177C  D002               	bra	u1685
  5451   00177E  988A               	bcf	138,4,c	;volatile
  5452   001780  D001               	bra	u1686
  5453   001782                     u1685:
  5454   001782  888A               	bsf	138,4,c	;volatile
  5455   001784                     u1686:
  5456                           
  5457                           ;main.c: 70:             plane[i][j] = 0;
  5458   001784  0100               	movlb	0	; () banked
  5459   001786  B19E               	btfsc	(_plane+30)& (0+255),0,b
  5460   001788  D002               	bra	u1695
  5461   00178A  9E8B               	bcf	139,7,c	;volatile
  5462   00178C  D001               	bra	u1696
  5463   00178E                     u1695:
  5464   00178E  8E8B               	bsf	139,7,c	;volatile
  5465   001790                     u1696:
  5466                           
  5467                           ;main.c: 71:     draw_plane();
  5468   001790  0100               	movlb	0	; () banked
  5469   001792  B1A0               	btfsc	(_plane+32)& (0+255),0,b
  5470   001794  D002               	bra	u1705
  5471   001796  988C               	bcf	140,4,c	;volatile
  5472   001798  D001               	bra	u1706
  5473   00179A                     u1705:
  5474   00179A  888C               	bsf	140,4,c	;volatile
  5475   00179C                     u1706:
  5476                           
  5477                           ;main.c: 72: }
  5478   00179C  0100               	movlb	0	; () banked
  5479   00179E  B1A2               	btfsc	(_plane+34)& (0+255),0,b
  5480   0017A0  D002               	bra	u1715
  5481   0017A2  9A8C               	bcf	140,5,c	;volatile
  5482   0017A4  D001               	bra	u1716
  5483   0017A6                     u1715:
  5484   0017A6  8A8C               	bsf	140,5,c	;volatile
  5485   0017A8                     u1716:
  5486                           
  5487                           ;main.c: 73: 
  5488   0017A8  0100               	movlb	0	; () banked
  5489   0017AA  B1A4               	btfsc	(_plane+36)& (0+255),0,b
  5490   0017AC  D002               	bra	u1725
  5491   0017AE  9C8C               	bcf	140,6,c	;volatile
  5492   0017B0  D001               	bra	u1726
  5493   0017B2                     u1725:
  5494   0017B2  8C8C               	bsf	140,6,c	;volatile
  5495   0017B4                     u1726:
  5496                           
  5497                           ;main.c: 74: void plane_on(int a){
  5498   0017B4  0100               	movlb	0	; () banked
  5499   0017B6  B1A6               	btfsc	(_plane+38)& (0+255),0,b
  5500   0017B8  D002               	bra	u1735
  5501   0017BA  9E8C               	bcf	140,7,c	;volatile
  5502   0017BC  D001               	bra	u1736
  5503   0017BE                     u1735:
  5504   0017BE  8E8C               	bsf	140,7,c	;volatile
  5505   0017C0                     u1736:
  5506                           
  5507                           ;main.c: 76:         case 0:
  5508   0017C0  0100               	movlb	0	; () banked
  5509   0017C2  B1A8               	btfsc	(_plane+40)& (0+255),0,b
  5510   0017C4  D002               	bra	u1745
  5511   0017C6  948C               	bcf	140,2,c	;volatile
  5512   0017C8  D001               	bra	u1746
  5513   0017CA                     u1745:
  5514   0017CA  848C               	bsf	140,2,c	;volatile
  5515   0017CC                     u1746:
  5516                           
  5517                           ;main.c: 77:             TRISEbits.TRISE1 = 0;
  5518   0017CC  0100               	movlb	0	; () banked
  5519   0017CE  B1AA               	btfsc	(_plane+42)& (0+255),0,b
  5520   0017D0  D002               	bra	u1755
  5521   0017D2  968C               	bcf	140,3,c	;volatile
  5522   0017D4  D001               	bra	u1756
  5523   0017D6                     u1755:
  5524   0017D6  868C               	bsf	140,3,c	;volatile
  5525   0017D8                     u1756:
  5526                           
  5527                           ;main.c: 78:             LATEbits.LE1 = 1;
  5528   0017D8  0100               	movlb	0	; () banked
  5529   0017DA  B1AC               	btfsc	(_plane+44)& (0+255),0,b
  5530   0017DC  D002               	bra	u1765
  5531   0017DE  988B               	bcf	139,4,c	;volatile
  5532   0017E0  D001               	bra	u1766
  5533   0017E2                     u1765:
  5534   0017E2  888B               	bsf	139,4,c	;volatile
  5535   0017E4                     u1766:
  5536                           
  5537                           ;main.c: 79:             break;
  5538   0017E4  0100               	movlb	0	; () banked
  5539   0017E6  B1AE               	btfsc	(_plane+46)& (0+255),0,b
  5540   0017E8  D002               	bra	u1775
  5541   0017EA  9A8B               	bcf	139,5,c	;volatile
  5542   0017EC  D001               	bra	u1776
  5543   0017EE                     u1775:
  5544   0017EE  8A8B               	bsf	139,5,c	;volatile
  5545   0017F0                     u1776:
  5546                           
  5547                           ;main.c: 80:         case 1:
  5548   0017F0  0100               	movlb	0	; () banked
  5549   0017F2  B1B0               	btfsc	(_plane+48)& (0+255),0,b
  5550   0017F4  D002               	bra	u1785
  5551   0017F6  9C8B               	bcf	139,6,c	;volatile
  5552   0017F8  D001               	bra	u1786
  5553   0017FA                     u1785:
  5554   0017FA  8C8B               	bsf	139,6,c	;volatile
  5555   0017FC                     u1786:
  5556   0017FC  0012               	return		;funcret
  5557   0017FE                     __end_of_draw_plane:
  5558                           	callstack 0
  5559                           
  5560 ;; *************** function ___awmod *****************
  5561 ;; Defined at:
  5562 ;;		line 7 in file "C:\Program Files\Microchip\xc8\v2.40\pic\sources\c99\common\awmod.c"
  5563 ;; Parameters:    Size  Location     Type
  5564 ;;  dividend        2   23[COMRAM] int 
  5565 ;;  divisor         2   25[COMRAM] int 
  5566 ;; Auto vars:     Size  Location     Type
  5567 ;;  sign            1   28[COMRAM] unsigned char 
  5568 ;;  counter         1   27[COMRAM] unsigned char 
  5569 ;; Return value:  Size  Location     Type
  5570 ;;                  2   23[COMRAM] int 
  5571 ;; Registers used:
  5572 ;;		wreg, status,2, status,0
  5573 ;; Tracked objects:
  5574 ;;		On entry : 0/0
  5575 ;;		On exit  : 0/0
  5576 ;;		Unchanged: 0/0
  5577 ;; Data sizes:     COMRAM   BANK0   BANK1   BANK2   BANK3   BANK4   BANK5
  5578 ;;      Params:         4       0       0       0       0       0       0
  5579 ;;      Locals:         2       0       0       0       0       0       0
  5580 ;;      Temps:          0       0       0       0       0       0       0
  5581 ;;      Totals:         6       0       0       0       0       0       0
  5582 ;;Total ram usage:        6 bytes
  5583 ;; Hardware stack levels used: 1
  5584 ;; Hardware stack levels required when called: 1
  5585 ;; This function calls:
  5586 ;;		Nothing
  5587 ;; This function is called by:
  5588 ;;		_lighton
  5589 ;;		_move
  5590 ;;		_random_pattern
  5591 ;;		_speedup
  5592 ;;		_slash
  5593 ;; This function uses a non-reentrant model
  5594 ;;
  5595                           
  5596                           	psect	text18
  5597   001B96                     __ptext18:
  5598                           	callstack 0
  5599   001B96                     ___awmod:
  5600                           	callstack 28
  5601   001B96  0E00               	movlw	0
  5602   001B98  6E1D               	movwf	___awmod@sign^0,c
  5603   001B9A  BE19               	btfsc	(___awmod@dividend+1)^0,7,c
  5604   001B9C  EFD4  F00D         	goto	u1870
  5605   001BA0  EFD2  F00D         	goto	u1871
  5606   001BA4                     u1871:
  5607   001BA4  EFDA  F00D         	goto	l2111
  5608   001BA8                     u1870:
  5609   001BA8  6C18               	negf	___awmod@dividend^0,c
  5610   001BAA  1E19               	comf	(___awmod@dividend+1)^0,f,c
  5611   001BAC  B0D8               	btfsc	status,0,c
  5612   001BAE  2A19               	incf	(___awmod@dividend+1)^0,f,c
  5613   001BB0  0E01               	movlw	1
  5614   001BB2  6E1D               	movwf	___awmod@sign^0,c
  5615   001BB4                     l2111:
  5616   001BB4  BE1B               	btfsc	(___awmod@divisor+1)^0,7,c
  5617   001BB6  EFE1  F00D         	goto	u1880
  5618   001BBA  EFDF  F00D         	goto	u1881
  5619   001BBE                     u1881:
  5620   001BBE  EFE5  F00D         	goto	l2115
  5621   001BC2                     u1880:
  5622   001BC2  6C1A               	negf	___awmod@divisor^0,c
  5623   001BC4  1E1B               	comf	(___awmod@divisor+1)^0,f,c
  5624   001BC6  B0D8               	btfsc	status,0,c
  5625   001BC8  2A1B               	incf	(___awmod@divisor+1)^0,f,c
  5626   001BCA                     l2115:
  5627   001BCA  501A               	movf	___awmod@divisor^0,w,c
  5628   001BCC  101B               	iorwf	(___awmod@divisor+1)^0,w,c
  5629   001BCE  B4D8               	btfsc	status,2,c
  5630   001BD0  EFEC  F00D         	goto	u1891
  5631   001BD4  EFEE  F00D         	goto	u1890
  5632   001BD8                     u1891:
  5633   001BD8  EF12  F00E         	goto	l2131
  5634   001BDC                     u1890:
  5635   001BDC  0E01               	movlw	1
  5636   001BDE  6E1C               	movwf	___awmod@counter^0,c
  5637   001BE0  EFF6  F00D         	goto	l2121
  5638   001BE4                     l2119:
  5639   001BE4  90D8               	bcf	status,0,c
  5640   001BE6  361A               	rlcf	___awmod@divisor^0,f,c
  5641   001BE8  361B               	rlcf	(___awmod@divisor+1)^0,f,c
  5642   001BEA  2A1C               	incf	___awmod@counter^0,f,c
  5643   001BEC                     l2121:
  5644   001BEC  AE1B               	btfss	(___awmod@divisor+1)^0,7,c
  5645   001BEE  EFFB  F00D         	goto	u1901
  5646   001BF2  EFFD  F00D         	goto	u1900
  5647   001BF6                     u1901:
  5648   001BF6  EFF2  F00D         	goto	l2119
  5649   001BFA                     u1900:
  5650   001BFA                     l2123:
  5651   001BFA  501A               	movf	___awmod@divisor^0,w,c
  5652   001BFC  5C18               	subwf	___awmod@dividend^0,w,c
  5653   001BFE  501B               	movf	(___awmod@divisor+1)^0,w,c
  5654   001C00  5819               	subwfb	(___awmod@dividend+1)^0,w,c
  5655   001C02  A0D8               	btfss	status,0,c
  5656   001C04  EF06  F00E         	goto	u1911
  5657   001C08  EF08  F00E         	goto	u1910
  5658   001C0C                     u1911:
  5659   001C0C  EF0C  F00E         	goto	l2127
  5660   001C10                     u1910:
  5661   001C10  501A               	movf	___awmod@divisor^0,w,c
  5662   001C12  5E18               	subwf	___awmod@dividend^0,f,c
  5663   001C14  501B               	movf	(___awmod@divisor+1)^0,w,c
  5664   001C16  5A19               	subwfb	(___awmod@dividend+1)^0,f,c
  5665   001C18                     l2127:
  5666   001C18  90D8               	bcf	status,0,c
  5667   001C1A  321B               	rrcf	(___awmod@divisor+1)^0,f,c
  5668   001C1C  321A               	rrcf	___awmod@divisor^0,f,c
  5669   001C1E  2E1C               	decfsz	___awmod@counter^0,f,c
  5670   001C20  EFFD  F00D         	goto	l2123
  5671   001C24                     l2131:
  5672   001C24  501D               	movf	___awmod@sign^0,w,c
  5673   001C26  B4D8               	btfsc	status,2,c
  5674   001C28  EF18  F00E         	goto	u1921
  5675   001C2C  EF1A  F00E         	goto	u1920
  5676   001C30                     u1921:
  5677   001C30  EF1E  F00E         	goto	l2135
  5678   001C34                     u1920:
  5679   001C34  6C18               	negf	___awmod@dividend^0,c
  5680   001C36  1E19               	comf	(___awmod@dividend+1)^0,f,c
  5681   001C38  B0D8               	btfsc	status,0,c
  5682   001C3A  2A19               	incf	(___awmod@dividend+1)^0,f,c
  5683   001C3C                     l2135:
  5684   001C3C  C018  F018         	movff	___awmod@dividend,?___awmod
  5685   001C40  C019  F019         	movff	___awmod@dividend+1,?___awmod+1
  5686   001C44  0012               	return		;funcret
  5687   001C46                     __end_of___awmod:
  5688                           	callstack 0
  5689                           
  5690 ;; *************** function ___awdiv *****************
  5691 ;; Defined at:
  5692 ;;		line 7 in file "C:\Program Files\Microchip\xc8\v2.40\pic\sources\c99\common\awdiv.c"
  5693 ;; Parameters:    Size  Location     Type
  5694 ;;  dividend        2   29[COMRAM] int 
  5695 ;;  divisor         2   31[COMRAM] int 
  5696 ;; Auto vars:     Size  Location     Type
  5697 ;;  quotient        2   35[COMRAM] int 
  5698 ;;  sign            1   34[COMRAM] unsigned char 
  5699 ;;  counter         1   33[COMRAM] unsigned char 
  5700 ;; Return value:  Size  Location     Type
  5701 ;;                  2   29[COMRAM] int 
  5702 ;; Registers used:
  5703 ;;		wreg, status,2, status,0
  5704 ;; Tracked objects:
  5705 ;;		On entry : 0/0
  5706 ;;		On exit  : 0/0
  5707 ;;		Unchanged: 0/0
  5708 ;; Data sizes:     COMRAM   BANK0   BANK1   BANK2   BANK3   BANK4   BANK5
  5709 ;;      Params:         4       0       0       0       0       0       0
  5710 ;;      Locals:         4       0       0       0       0       0       0
  5711 ;;      Temps:          0       0       0       0       0       0       0
  5712 ;;      Totals:         8       0       0       0       0       0       0
  5713 ;;Total ram usage:        8 bytes
  5714 ;; Hardware stack levels used: 1
  5715 ;; Hardware stack levels required when called: 1
  5716 ;; This function calls:
  5717 ;;		Nothing
  5718 ;; This function is called by:
  5719 ;;		_lighton
  5720 ;; This function uses a non-reentrant model
  5721 ;;
  5722                           
  5723                           	psect	text19
  5724   001A16                     __ptext19:
  5725                           	callstack 0
  5726   001A16                     ___awdiv:
  5727                           	callstack 27
  5728   001A16  0E00               	movlw	0
  5729   001A18  6E23               	movwf	___awdiv@sign^0,c
  5730   001A1A  BE21               	btfsc	(___awdiv@divisor+1)^0,7,c
  5731   001A1C  EF14  F00D         	goto	u1810
  5732   001A20  EF12  F00D         	goto	u1811
  5733   001A24                     u1811:
  5734   001A24  EF1A  F00D         	goto	l2067
  5735   001A28                     u1810:
  5736   001A28  6C20               	negf	___awdiv@divisor^0,c
  5737   001A2A  1E21               	comf	(___awdiv@divisor+1)^0,f,c
  5738   001A2C  B0D8               	btfsc	status,0,c
  5739   001A2E  2A21               	incf	(___awdiv@divisor+1)^0,f,c
  5740   001A30  0E01               	movlw	1
  5741   001A32  6E23               	movwf	___awdiv@sign^0,c
  5742   001A34                     l2067:
  5743   001A34  BE1F               	btfsc	(___awdiv@dividend+1)^0,7,c
  5744   001A36  EF21  F00D         	goto	u1820
  5745   001A3A  EF1F  F00D         	goto	u1821
  5746   001A3E                     u1821:
  5747   001A3E  EF27  F00D         	goto	l2073
  5748   001A42                     u1820:
  5749   001A42  6C1E               	negf	___awdiv@dividend^0,c
  5750   001A44  1E1F               	comf	(___awdiv@dividend+1)^0,f,c
  5751   001A46  B0D8               	btfsc	status,0,c
  5752   001A48  2A1F               	incf	(___awdiv@dividend+1)^0,f,c
  5753   001A4A  0E01               	movlw	1
  5754   001A4C  1A23               	xorwf	___awdiv@sign^0,f,c
  5755   001A4E                     l2073:
  5756   001A4E  0E00               	movlw	0
  5757   001A50  6E25               	movwf	(___awdiv@quotient+1)^0,c
  5758   001A52  0E00               	movlw	0
  5759   001A54  6E24               	movwf	___awdiv@quotient^0,c
  5760   001A56  5020               	movf	___awdiv@divisor^0,w,c
  5761   001A58  1021               	iorwf	(___awdiv@divisor+1)^0,w,c
  5762   001A5A  B4D8               	btfsc	status,2,c
  5763   001A5C  EF32  F00D         	goto	u1831
  5764   001A60  EF34  F00D         	goto	u1830
  5765   001A64                     u1831:
  5766   001A64  EF5C  F00D         	goto	l2095
  5767   001A68                     u1830:
  5768   001A68  0E01               	movlw	1
  5769   001A6A  6E22               	movwf	___awdiv@counter^0,c
  5770   001A6C  EF3C  F00D         	goto	l2081
  5771   001A70                     l2079:
  5772   001A70  90D8               	bcf	status,0,c
  5773   001A72  3620               	rlcf	___awdiv@divisor^0,f,c
  5774   001A74  3621               	rlcf	(___awdiv@divisor+1)^0,f,c
  5775   001A76  2A22               	incf	___awdiv@counter^0,f,c
  5776   001A78                     l2081:
  5777   001A78  AE21               	btfss	(___awdiv@divisor+1)^0,7,c
  5778   001A7A  EF41  F00D         	goto	u1841
  5779   001A7E  EF43  F00D         	goto	u1840
  5780   001A82                     u1841:
  5781   001A82  EF38  F00D         	goto	l2079
  5782   001A86                     u1840:
  5783   001A86                     l2083:
  5784   001A86  90D8               	bcf	status,0,c
  5785   001A88  3624               	rlcf	___awdiv@quotient^0,f,c
  5786   001A8A  3625               	rlcf	(___awdiv@quotient+1)^0,f,c
  5787   001A8C  5020               	movf	___awdiv@divisor^0,w,c
  5788   001A8E  5C1E               	subwf	___awdiv@dividend^0,w,c
  5789   001A90  5021               	movf	(___awdiv@divisor+1)^0,w,c
  5790   001A92  581F               	subwfb	(___awdiv@dividend+1)^0,w,c
  5791   001A94  A0D8               	btfss	status,0,c
  5792   001A96  EF4F  F00D         	goto	u1851
  5793   001A9A  EF51  F00D         	goto	u1850
  5794   001A9E                     u1851:
  5795   001A9E  EF56  F00D         	goto	l2091
  5796   001AA2                     u1850:
  5797   001AA2  5020               	movf	___awdiv@divisor^0,w,c
  5798   001AA4  5E1E               	subwf	___awdiv@dividend^0,f,c
  5799   001AA6  5021               	movf	(___awdiv@divisor+1)^0,w,c
  5800   001AA8  5A1F               	subwfb	(___awdiv@dividend+1)^0,f,c
  5801   001AAA  8024               	bsf	___awdiv@quotient^0,0,c
  5802   001AAC                     l2091:
  5803   001AAC  90D8               	bcf	status,0,c
  5804   001AAE  3221               	rrcf	(___awdiv@divisor+1)^0,f,c
  5805   001AB0  3220               	rrcf	___awdiv@divisor^0,f,c
  5806   001AB2  2E22               	decfsz	___awdiv@counter^0,f,c
  5807   001AB4  EF43  F00D         	goto	l2083
  5808   001AB8                     l2095:
  5809   001AB8  5023               	movf	___awdiv@sign^0,w,c
  5810   001ABA  B4D8               	btfsc	status,2,c
  5811   001ABC  EF62  F00D         	goto	u1861
  5812   001AC0  EF64  F00D         	goto	u1860
  5813   001AC4                     u1861:
  5814   001AC4  EF68  F00D         	goto	l2099
  5815   001AC8                     u1860:
  5816   001AC8  6C24               	negf	___awdiv@quotient^0,c
  5817   001ACA  1E25               	comf	(___awdiv@quotient+1)^0,f,c
  5818   001ACC  B0D8               	btfsc	status,0,c
  5819   001ACE  2A25               	incf	(___awdiv@quotient+1)^0,f,c
  5820   001AD0                     l2099:
  5821   001AD0  C024  F01E         	movff	___awdiv@quotient,?___awdiv
  5822   001AD4  C025  F01F         	movff	___awdiv@quotient+1,?___awdiv+1
  5823   001AD8  0012               	return		;funcret
  5824   001ADA                     __end_of___awdiv:
  5825                           	callstack 0
  5826                           
  5827 ;; *************** function _clear_cube *****************
  5828 ;; Defined at:
  5829 ;;		line 133 in file "main.c"
  5830 ;; Parameters:    Size  Location     Type
  5831 ;;		None
  5832 ;; Auto vars:     Size  Location     Type
  5833 ;;  j               2   47[COMRAM] int 
  5834 ;;  i               2   45[COMRAM] int 
  5835 ;; Return value:  Size  Location     Type
  5836 ;;                  1    wreg      void 
  5837 ;; Registers used:
  5838 ;;		wreg, fsr2l, fsr2h, status,2, status,0, prodl, prodh, cstack
  5839 ;; Tracked objects:
  5840 ;;		On entry : 0/0
  5841 ;;		On exit  : 0/0
  5842 ;;		Unchanged: 0/0
  5843 ;; Data sizes:     COMRAM   BANK0   BANK1   BANK2   BANK3   BANK4   BANK5
  5844 ;;      Params:         0       0       0       0       0       0       0
  5845 ;;      Locals:         4       0       0       0       0       0       0
  5846 ;;      Temps:          2       0       0       0       0       0       0
  5847 ;;      Totals:         6       0       0       0       0       0       0
  5848 ;;Total ram usage:        6 bytes
  5849 ;; Hardware stack levels used: 1
  5850 ;; Hardware stack levels required when called: 2
  5851 ;; This function calls:
  5852 ;;		___wmul
  5853 ;; This function is called by:
  5854 ;;		_rainfall
  5855 ;;		_scan
  5856 ;;		_speedup
  5857 ;;		_cubeidle
  5858 ;;		_pulsing
  5859 ;;		_main
  5860 ;;		_slash
  5861 ;; This function uses a non-reentrant model
  5862 ;;
  5863                           
  5864                           	psect	text20
  5865   001C46                     __ptext20:
  5866                           	callstack 0
  5867   001C46                     _clear_cube:
  5868                           	callstack 27
  5869   001C46                     
  5870                           ;main.c: 135: void lighton(int x, int prev){
  5871   001C46  0E00               	movlw	0
  5872   001C48  6E92               	movwf	146,c	;volatile
  5873                           
  5874                           ;main.c: 136:     set_plane(x/25);
  5875   001C4A  0E00               	movlw	0
  5876   001C4C  6E93               	movwf	147,c	;volatile
  5877                           
  5878                           ;main.c: 137:     if(prev != -1)plane[(prev%25)/5][prev%5] = 0;
  5879   001C4E  0E00               	movlw	0
  5880   001C50  6E94               	movwf	148,c	;volatile
  5881                           
  5882                           ;main.c: 138:     plane[(x%25)/5][x%5] = 1;
  5883   001C52  0E00               	movlw	0
  5884   001C54  6E95               	movwf	149,c	;volatile
  5885                           
  5886                           ;main.c: 139:     draw_plane();
  5887   001C56  0E00               	movlw	0
  5888   001C58  6E96               	movwf	150,c	;volatile
  5889   001C5A                     
  5890                           ;main.c: 140: }
  5891   001C5A  8296               	bsf	150,1,c	;volatile
  5892   001C5C                     
  5893                           ;main.c: 141: int move(int x, int r){
  5894   001C5C  8496               	bsf	150,2,c	;volatile
  5895   001C5E                     
  5896                           ;main.c: 142:     if(r == 0)x = (x%5 == 4) ? x-4 : x+1;
  5897   001C5E  8E92               	bsf	146,7,c	;volatile
  5898   001C60                     
  5899                           ;main.c: 143:     else if(r == 1)x = (x%5 == 0) ? x+4 : x-1;
  5900   001C60  8C92               	bsf	146,6,c	;volatile
  5901   001C62                     
  5902                           ;main.c: 144:     else if(r == 2)x = (x%25 >= 20) ? x-20 : x+5;
  5903   001C62  8094               	bsf	148,0,c	;volatile
  5904                           
  5905                           ;main.c: 145:     else if(r == 3)x = (x%25 < 5) ? x+20 : x-5;
  5906   001C64  0E00               	movlw	0
  5907   001C66  6E2F               	movwf	(clear_cube@i+1)^0,c
  5908   001C68  0E00               	movlw	0
  5909   001C6A  6E2E               	movwf	clear_cube@i^0,c
  5910   001C6C                     l2179:
  5911                           
  5912                           ;main.c: 146:     else if(r == 4)x = (x >= 100) ? x-100 : x+25;
  5913   001C6C  0E00               	movlw	0
  5914   001C6E  6E31               	movwf	(clear_cube@j+1)^0,c
  5915   001C70  0E00               	movlw	0
  5916   001C72  6E30               	movwf	clear_cube@j^0,c
  5917   001C74                     l2185:
  5918                           
  5919                           ;main.c: 147:     else if(r == 5)x = (x<25) ? x+100 : x-25;
  5920   001C74  C02E  F026         	movff	clear_cube@i,___wmul@multiplier
  5921   001C78  C02F  F027         	movff	clear_cube@i+1,___wmul@multiplier+1
  5922   001C7C  0E00               	movlw	0
  5923   001C7E  6E29               	movwf	(___wmul@multiplicand+1)^0,c
  5924   001C80  0E0A               	movlw	10
  5925   001C82  6E28               	movwf	___wmul@multiplicand^0,c
  5926   001C84  ECF8  F00F         	call	___wmul	;wreg free
  5927   001C88  0E80               	movlw	low _plane
  5928   001C8A  2426               	addwf	?___wmul^0,w,c
  5929   001C8C  6E2C               	movwf	??_clear_cube^0,c
  5930   001C8E  0E00               	movlw	high _plane
  5931   001C90  2027               	addwfc	(?___wmul+1)^0,w,c
  5932   001C92  6E2D               	movwf	(??_clear_cube+1)^0,c
  5933   001C94  90D8               	bcf	status,0,c
  5934   001C96  3430               	rlcf	clear_cube@j^0,w,c
  5935   001C98  6ED9               	movwf	fsr2l,c
  5936   001C9A  3431               	rlcf	(clear_cube@j+1)^0,w,c
  5937   001C9C  6EDA               	movwf	fsr2h,c
  5938   001C9E  502C               	movf	??_clear_cube^0,w,c
  5939   001CA0  26D9               	addwf	fsr2l,f,c
  5940   001CA2  502D               	movf	(??_clear_cube+1)^0,w,c
  5941   001CA4  22DA               	addwfc	fsr2h,f,c
  5942   001CA6  0E00               	movlw	0
  5943   001CA8  6EDE               	movwf	postinc2,c
  5944   001CAA  0E00               	movlw	0
  5945   001CAC  6EDD               	movwf	postdec2,c
  5946   001CAE  4A30               	infsnz	clear_cube@j^0,f,c
  5947   001CB0  2A31               	incf	(clear_cube@j+1)^0,f,c
  5948   001CB2  BE31               	btfsc	(clear_cube@j+1)^0,7,c
  5949   001CB4  EF65  F00E         	goto	u1951
  5950   001CB8  5031               	movf	(clear_cube@j+1)^0,w,c
  5951   001CBA  E109               	bnz	u1950
  5952   001CBC  0E05               	movlw	5
  5953   001CBE  5C30               	subwf	clear_cube@j^0,w,c
  5954   001CC0  A0D8               	btfss	status,0,c
  5955   001CC2  EF65  F00E         	goto	u1951
  5956   001CC6  EF67  F00E         	goto	u1950
  5957   001CCA                     u1951:
  5958   001CCA  EF3A  F00E         	goto	l2185
  5959   001CCE                     u1950:
  5960   001CCE  4A2E               	infsnz	clear_cube@i^0,f,c
  5961   001CD0  2A2F               	incf	(clear_cube@i+1)^0,f,c
  5962   001CD2  BE2F               	btfsc	(clear_cube@i+1)^0,7,c
  5963   001CD4  EF75  F00E         	goto	u1961
  5964   001CD8  502F               	movf	(clear_cube@i+1)^0,w,c
  5965   001CDA  E109               	bnz	u1960
  5966   001CDC  0E05               	movlw	5
  5967   001CDE  5C2E               	subwf	clear_cube@i^0,w,c
  5968   001CE0  A0D8               	btfss	status,0,c
  5969   001CE2  EF75  F00E         	goto	u1961
  5970   001CE6  EF77  F00E         	goto	u1960
  5971   001CEA                     u1961:
  5972   001CEA  EF36  F00E         	goto	l2179
  5973   001CEE                     u1960:
  5974   001CEE  0012               	return		;funcret
  5975   001CF0                     __end_of_clear_cube:
  5976                           	callstack 0
  5977                           
  5978 ;; *************** function ___wmul *****************
  5979 ;; Defined at:
  5980 ;;		line 15 in file "C:\Program Files\Microchip\xc8\v2.40\pic\sources\c99\common\Umul16.c"
  5981 ;; Parameters:    Size  Location     Type
  5982 ;;  multiplier      2   37[COMRAM] unsigned int 
  5983 ;;  multiplicand    2   39[COMRAM] unsigned int 
  5984 ;; Auto vars:     Size  Location     Type
  5985 ;;  product         2   41[COMRAM] unsigned int 
  5986 ;; Return value:  Size  Location     Type
  5987 ;;                  2   37[COMRAM] unsigned int 
  5988 ;; Registers used:
  5989 ;;		wreg, status,2, status,0, prodl, prodh
  5990 ;; Tracked objects:
  5991 ;;		On entry : 0/0
  5992 ;;		On exit  : 0/0
  5993 ;;		Unchanged: 0/0
  5994 ;; Data sizes:     COMRAM   BANK0   BANK1   BANK2   BANK3   BANK4   BANK5
  5995 ;;      Params:         4       0       0       0       0       0       0
  5996 ;;      Locals:         2       0       0       0       0       0       0
  5997 ;;      Temps:          0       0       0       0       0       0       0
  5998 ;;      Totals:         6       0       0       0       0       0       0
  5999 ;;Total ram usage:        6 bytes
  6000 ;; Hardware stack levels used: 1
  6001 ;; Hardware stack levels required when called: 1
  6002 ;; This function calls:
  6003 ;;		Nothing
  6004 ;; This function is called by:
  6005 ;;		_clear_plane
  6006 ;;		_clear_cube
  6007 ;;		_lighton
  6008 ;;		_scan
  6009 ;;		_speedup
  6010 ;;		_pulsing
  6011 ;;		_slash
  6012 ;; This function uses a non-reentrant model
  6013 ;;
  6014                           
  6015                           	psect	text21
  6016   001FF0                     __ptext21:
  6017                           	callstack 0
  6018   001FF0                     ___wmul:
  6019                           	callstack 27
  6020   001FF0  5026               	movf	___wmul@multiplier^0,w,c
  6021   001FF2  0228               	mulwf	___wmul@multiplicand^0,c
  6022   001FF4  CFF3 F02A          	movff	prodl,___wmul@product
  6023   001FF8  CFF4 F02B          	movff	prodh,___wmul@product+1
  6024   001FFC  5026               	movf	___wmul@multiplier^0,w,c
  6025   001FFE  0229               	mulwf	(___wmul@multiplicand+1)^0,c
  6026   002000  50F3               	movf	243,w,c
  6027   002002  262B               	addwf	(___wmul@product+1)^0,f,c
  6028   002004  5027               	movf	(___wmul@multiplier+1)^0,w,c
  6029   002006  0228               	mulwf	___wmul@multiplicand^0,c
  6030   002008  50F3               	movf	243,w,c
  6031   00200A  262B               	addwf	(___wmul@product+1)^0,f,c
  6032   00200C  C02A  F026         	movff	___wmul@product,?___wmul
  6033   002010  C02B  F027         	movff	___wmul@product+1,?___wmul+1
  6034   002014  0012               	return		;funcret
  6035   002016                     __end_of___wmul:
  6036                           	callstack 0
  6037                           
  6038 ;; *************** function _H_ISR *****************
  6039 ;; Defined at:
  6040 ;;		line 610 in file "main.c"
  6041 ;; Parameters:    Size  Location     Type
  6042 ;;		None
  6043 ;; Auto vars:     Size  Location     Type
  6044 ;;  value           2    2[COMRAM] int 
  6045 ;;  mapResult       1    4[COMRAM] unsigned char 
  6046 ;; Return value:  Size  Location     Type
  6047 ;;                  1    wreg      void 
  6048 ;; Registers used:
  6049 ;;		wreg, status,2, status,0
  6050 ;; Tracked objects:
  6051 ;;		On entry : 0/0
  6052 ;;		On exit  : 0/0
  6053 ;;		Unchanged: 0/0
  6054 ;; Data sizes:     COMRAM   BANK0   BANK1   BANK2   BANK3   BANK4   BANK5
  6055 ;;      Params:         0       0       0       0       0       0       0
  6056 ;;      Locals:         3       0       0       0       0       0       0
  6057 ;;      Temps:          2       0       0       0       0       0       0
  6058 ;;      Totals:         5       0       0       0       0       0       0
  6059 ;;Total ram usage:        5 bytes
  6060 ;; Hardware stack levels used: 1
  6061 ;; This function calls:
  6062 ;;		Nothing
  6063 ;; This function is called by:
  6064 ;;		Interrupt level 2
  6065 ;; This function uses a non-reentrant model
  6066 ;;
  6067                           
  6068                           	psect	intcode
  6069   000008                     __pintcode:
  6070                           	callstack 0
  6071   000008                     _H_ISR:
  6072                           	callstack 26
  6073                           
  6074                           ;incstack = 0
  6075   000008  825A               	bsf	int$flags,1,c	;set compiler interrupt flag (level 2)
  6076   00000A  ED95  F00F         	call	int_func,f	;refresh shadow registers
  6077                           
  6078                           	psect	intcode_body
  6079   001F2A                     __pintcode_body:
  6080                           	callstack 26
  6081   001F2A                     int_func:
  6082                           	callstack 26
  6083   001F2A  0006               	pop		; remove dummy address from shadow register refresh
  6084   001F2C                     
  6085                           ;main.c: 612: 
  6086   001F2C  50C4               	movf	196,w,c	;volatile
  6087   001F2E  6E02               	movwf	(??_H_ISR+1)^0,c
  6088   001F30  6A01               	clrf	??_H_ISR^0,c
  6089   001F32  50C3               	movf	195,w,c	;volatile
  6090   001F34  2401               	addwf	??_H_ISR^0,w,c
  6091   001F36  6E03               	movwf	H_ISR@value^0,c
  6092   001F38  0E00               	movlw	0
  6093   001F3A  2002               	addwfc	(??_H_ISR+1)^0,w,c
  6094   001F3C  6E04               	movwf	(H_ISR@value+1)^0,c
  6095   001F3E                     
  6096                           ;main.c: 615:     ADCON0bits.GO = 1;
  6097   001F3E  0E00               	movlw	0
  6098   001F40  6E05               	movwf	H_ISR@mapResult^0,c
  6099                           
  6100                           ;main.c: 617:     return;
  6101   001F42  EFA8  F00F         	goto	i2l2017
  6102   001F46                     i2l2013:
  6103                           
  6104                           ;main.c: 618: }
  6105   001F46  0E33               	movlw	51
  6106   001F48  2603               	addwf	H_ISR@value^0,f,c
  6107   001F4A  0EFF               	movlw	255
  6108   001F4C  2204               	addwfc	(H_ISR@value+1)^0,f,c
  6109   001F4E  2A05               	incf	H_ISR@mapResult^0,f,c
  6110   001F50                     i2l2017:
  6111                           
  6112                           ;main.c: 617:     return;
  6113   001F50  BE04               	btfsc	(H_ISR@value+1)^0,7,c
  6114   001F52  EFB6  F00F         	goto	i2u153_40
  6115   001F56  5004               	movf	(H_ISR@value+1)^0,w,c
  6116   001F58  E107               	bnz	i2u153_41
  6117   001F5A  0ECE               	movlw	206
  6118   001F5C  5C03               	subwf	H_ISR@value^0,w,c
  6119   001F5E  B0D8               	btfsc	status,0,c
  6120   001F60  EFB4  F00F         	goto	i2u153_41
  6121   001F64  EFB6  F00F         	goto	i2u153_40
  6122   001F68                     i2u153_41:
  6123   001F68  EFA3  F00F         	goto	i2l2013
  6124   001F6C                     i2u153_40:
  6125   001F6C  C005  F054         	movff	H_ISR@mapResult,_mode
  6126   001F70  6A55               	clrf	(_mode+1)^0,c
  6127   001F72  9C9E               	bcf	158,6,c	;volatile
  6128   001F74  D000               	nop2		;2 cycle nop
  6129   001F76  D000               	nop2		;2 cycle nop
  6130   001F78  82C2               	bsf	194,1,c	;volatile
  6131   001F7A  925A               	bcf	int$flags,1,c	;clear compiler interrupt flag (level 2)
  6132   001F7C  0011               	retfie		f
  6133   001F7E                     __end_of_H_ISR:
  6134                           	callstack 0
  6135   000000                     
  6136                           	psect	rparam
  6137   000000                     
  6138                           	psect	temp
  6139   00005A                     btemp:
  6140                           	callstack 0
  6141   00005A                     	ds	1
  6142   000000                     int$flags	set	btemp
  6143   000000                     wtemp8	set	btemp+1
  6144   000000                     ttemp5	set	btemp+1
  6145   000000                     ttemp6	set	btemp+4
  6146   000000                     ttemp7	set	btemp+8
  6147                           
  6148                           	psect	idloc
  6149                           
  6150                           ;Config register IDLOC0 @ 0x200000
  6151                           ;	unspecified, using default values
  6152   200000                     	org	2097152
  6153   200000  FF                 	db	255
  6154                           
  6155                           ;Config register IDLOC1 @ 0x200001
  6156                           ;	unspecified, using default values
  6157   200001                     	org	2097153
  6158   200001  FF                 	db	255
  6159                           
  6160                           ;Config register IDLOC2 @ 0x200002
  6161                           ;	unspecified, using default values
  6162   200002                     	org	2097154
  6163   200002  FF                 	db	255
  6164                           
  6165                           ;Config register IDLOC3 @ 0x200003
  6166                           ;	unspecified, using default values
  6167   200003                     	org	2097155
  6168   200003  FF                 	db	255
  6169                           
  6170                           ;Config register IDLOC4 @ 0x200004
  6171                           ;	unspecified, using default values
  6172   200004                     	org	2097156
  6173   200004  FF                 	db	255
  6174                           
  6175                           ;Config register IDLOC5 @ 0x200005
  6176                           ;	unspecified, using default values
  6177   200005                     	org	2097157
  6178   200005  FF                 	db	255
  6179                           
  6180                           ;Config register IDLOC6 @ 0x200006
  6181                           ;	unspecified, using default values
  6182   200006                     	org	2097158
  6183   200006  FF                 	db	255
  6184                           
  6185                           ;Config register IDLOC7 @ 0x200007
  6186                           ;	unspecified, using default values
  6187   200007                     	org	2097159
  6188   200007  FF                 	db	255
  6189                           
  6190                           	psect	config
  6191                           
  6192                           ; Padding undefined space
  6193   300000                     	org	3145728
  6194   300000  FF                 	db	255
  6195                           
  6196                           ;Config register CONFIG1H @ 0x300001
  6197                           ;	Oscillator Selection bits
  6198                           ;	OSC = INTIO67, Internal oscillator block, port function on RA6 and RA7
  6199                           ;	Fail-Safe Clock Monitor Enable bit
  6200                           ;	FCMEN = 0x0, unprogrammed default
  6201                           ;	Internal/External Oscillator Switchover bit
  6202                           ;	IESO = 0x0, unprogrammed default
  6203   300001                     	org	3145729
  6204   300001  08                 	db	8
  6205                           
  6206                           ;Config register CONFIG2L @ 0x300002
  6207                           ;	Power-up Timer Enable bit
  6208                           ;	PWRT = OFF, PWRT disabled
  6209                           ;	Brown-out Reset Enable bits
  6210                           ;	BOREN = ON, Brown-out Reset enabled and controlled by software (SBOREN is enabled)
  6211                           ;	Brown Out Reset Voltage bits
  6212                           ;	BORV = 0x3, unprogrammed default
  6213   300002                     	org	3145730
  6214   300002  1B                 	db	27
  6215                           
  6216                           ;Config register CONFIG2H @ 0x300003
  6217                           ;	Watchdog Timer Enable bit
  6218                           ;	WDT = OFF, WDT disabled (control is placed on the SWDTEN bit)
  6219                           ;	Watchdog Timer Postscale Select bits
  6220                           ;	WDTPS = 0xF, unprogrammed default
  6221   300003                     	org	3145731
  6222   300003  1E                 	db	30
  6223                           
  6224                           ; Padding undefined space
  6225   300004                     	org	3145732
  6226   300004  FF                 	db	255
  6227                           
  6228                           ;Config register CONFIG3H @ 0x300005
  6229                           ;	CCP2 MUX bit
  6230                           ;	CCP2MX = 0x1, unprogrammed default
  6231                           ;	PORTB A/D Enable bit
  6232                           ;	PBADEN = OFF, PORTB<4:0> pins are configured as digital I/O on Reset
  6233                           ;	Low-Power Timer1 Oscillator Enable bit
  6234                           ;	LPT1OSC = 0x0, unprogrammed default
  6235                           ;	MCLR Pin Enable bit
  6236                           ;	MCLRE = 0x1, unprogrammed default
  6237   300005                     	org	3145733
  6238   300005  81                 	db	129
  6239                           
  6240                           ;Config register CONFIG4L @ 0x300006
  6241                           ;	Stack Full/Underflow Reset Enable bit
  6242                           ;	STVREN = 0x1, unprogrammed default
  6243                           ;	Single-Supply ICSP Enable bit
  6244                           ;	LVP = OFF, Single-Supply ICSP disabled
  6245                           ;	Extended Instruction Set Enable bit
  6246                           ;	XINST = 0x0, unprogrammed default
  6247                           ;	Background Debugger Enable bit
  6248                           ;	DEBUG = 0x1, unprogrammed default
  6249   300006                     	org	3145734
  6250   300006  81                 	db	129
  6251                           
  6252                           ; Padding undefined space
  6253   300007                     	org	3145735
  6254   300007  FF                 	db	255
  6255                           
  6256                           ;Config register CONFIG5L @ 0x300008
  6257                           ;	unspecified, using default values
  6258                           ;	Code Protection bit
  6259                           ;	CP0 = 0x1, unprogrammed default
  6260                           ;	Code Protection bit
  6261                           ;	CP1 = 0x1, unprogrammed default
  6262                           ;	Code Protection bit
  6263                           ;	CP2 = 0x1, unprogrammed default
  6264                           ;	Code Protection bit
  6265                           ;	CP3 = 0x1, unprogrammed default
  6266   300008                     	org	3145736
  6267   300008  0F                 	db	15
  6268                           
  6269                           ;Config register CONFIG5H @ 0x300009
  6270                           ;	Boot Block Code Protection bit
  6271                           ;	CPB = 0x1, unprogrammed default
  6272                           ;	Data EEPROM Code Protection bit
  6273                           ;	CPD = OFF, Data EEPROM not code-protected
  6274   300009                     	org	3145737
  6275   300009  C0                 	db	192
  6276                           
  6277                           ;Config register CONFIG6L @ 0x30000A
  6278                           ;	unspecified, using default values
  6279                           ;	Write Protection bit
  6280                           ;	WRT0 = 0x1, unprogrammed default
  6281                           ;	Write Protection bit
  6282                           ;	WRT1 = 0x1, unprogrammed default
  6283                           ;	Write Protection bit
  6284                           ;	WRT2 = 0x1, unprogrammed default
  6285                           ;	Write Protection bit
  6286                           ;	WRT3 = 0x1, unprogrammed default
  6287   30000A                     	org	3145738
  6288   30000A  0F                 	db	15
  6289                           
  6290                           ;Config register CONFIG6H @ 0x30000B
  6291                           ;	unspecified, using default values
  6292                           ;	Configuration Register Write Protection bit
  6293                           ;	WRTC = 0x1, unprogrammed default
  6294                           ;	Boot Block Write Protection bit
  6295                           ;	WRTB = 0x1, unprogrammed default
  6296                           ;	Data EEPROM Write Protection bit
  6297                           ;	WRTD = 0x1, unprogrammed default
  6298   30000B                     	org	3145739
  6299   30000B  E0                 	db	224
  6300                           
  6301                           ;Config register CONFIG7L @ 0x30000C
  6302                           ;	unspecified, using default values
  6303                           ;	Table Read Protection bit
  6304                           ;	EBTR0 = 0x1, unprogrammed default
  6305                           ;	Table Read Protection bit
  6306                           ;	EBTR1 = 0x1, unprogrammed default
  6307                           ;	Table Read Protection bit
  6308                           ;	EBTR2 = 0x1, unprogrammed default
  6309                           ;	Table Read Protection bit
  6310                           ;	EBTR3 = 0x1, unprogrammed default
  6311   30000C                     	org	3145740
  6312   30000C  0F                 	db	15
  6313                           
  6314                           ;Config register CONFIG7H @ 0x30000D
  6315                           ;	unspecified, using default values
  6316                           ;	Boot Block Table Read Protection bit
  6317                           ;	EBTRB = 0x1, unprogrammed default
  6318   30000D                     	org	3145741
  6319   30000D  40                 	db	64
  6320                           tosu	equ	0xFFF
  6321                           tosh	equ	0xFFE
  6322                           tosl	equ	0xFFD
  6323                           stkptr	equ	0xFFC
  6324                           pclatu	equ	0xFFB
  6325                           pclath	equ	0xFFA
  6326                           pcl	equ	0xFF9
  6327                           tblptru	equ	0xFF8
  6328                           tblptrh	equ	0xFF7
  6329                           tblptrl	equ	0xFF6
  6330                           tablat	equ	0xFF5
  6331                           prodh	equ	0xFF4
  6332                           prodl	equ	0xFF3
  6333                           indf0	equ	0xFEF
  6334                           postinc0	equ	0xFEE
  6335                           postdec0	equ	0xFED
  6336                           preinc0	equ	0xFEC
  6337                           plusw0	equ	0xFEB
  6338                           fsr0h	equ	0xFEA
  6339                           fsr0l	equ	0xFE9
  6340                           wreg	equ	0xFE8
  6341                           indf1	equ	0xFE7
  6342                           postinc1	equ	0xFE6
  6343                           postdec1	equ	0xFE5
  6344                           preinc1	equ	0xFE4
  6345                           plusw1	equ	0xFE3
  6346                           fsr1h	equ	0xFE2
  6347                           fsr1l	equ	0xFE1
  6348                           bsr	equ	0xFE0
  6349                           indf2	equ	0xFDF
  6350                           postinc2	equ	0xFDE
  6351                           postdec2	equ	0xFDD
  6352                           preinc2	equ	0xFDC
  6353                           plusw2	equ	0xFDB
  6354                           fsr2h	equ	0xFDA
  6355                           fsr2l	equ	0xFD9
  6356                           status	equ	0xFD8

Data Sizes:
    Strings     0
    Constant    0
    Data        0
    BSS         56
    Persistent  0
    Stack       0

Auto Spaces:
    Space          Size  Autos    Used
    COMRAM          126     83      89
    BANK0           128      0      50
    BANK1           256      0       0
    BANK2           256      0       0
    BANK3           256      0       0
    BANK4           256      0       0
    BANK5           244      0       0

Pointer List with Targets:

    time@t	PTR long long  size(2) Largest target is 0
		 -> NULL(NULL[0]), 


Critical Paths under _main in COMRAM

    _main->_scan
    _speedup->_clear_cube
    _scan->_clear_cube
    _scan->_clear_plane
    _random_pattern->_clear_plane
    _random_pattern->_lighton
    _rand->___lmul
    _move->___awmod
    _rainfall->_clear_cube
    _rainfall->_clear_plane
    _clear_plane->___wmul
    _pulsing->_clear_cube
    _cubeidle->_clear_cube
    _cubeidle->_lighton
    _srand->_time
    _lighton->___wmul
    _set_plane->___awdiv
    ___awmod->_rand
    ___awdiv->___awmod
    _clear_cube->___wmul
    ___wmul->___awdiv

Critical Paths under _H_ISR in COMRAM

    None.

Critical Paths under _main in BANK0

    None.

Critical Paths under _H_ISR in BANK0

    None.

Critical Paths under _main in BANK1

    None.

Critical Paths under _H_ISR in BANK1

    None.

Critical Paths under _main in BANK2

    None.

Critical Paths under _H_ISR in BANK2

    None.

Critical Paths under _main in BANK3

    None.

Critical Paths under _H_ISR in BANK3

    None.

Critical Paths under _main in BANK4

    None.

Critical Paths under _H_ISR in BANK4

    None.

Critical Paths under _main in BANK5

    None.

Critical Paths under _H_ISR in BANK5

    None.

Call Graph Tables:

 ---------------------------------------------------------------------------------
 (Depth) Function   	        Calls       Base Space   Used Autos Params    Refs
 ---------------------------------------------------------------------------------
 (0) _main                                                 2     2      0   69074
                                             81 COMRAM     2     2      0
                         _clear_cube
                           _cubeidle
                               _init
                            _pulsing
                           _rainfall
                     _random_pattern
                               _scan
                            _speedup
 ---------------------------------------------------------------------------------
 (1) _speedup                                             15    13      2   10001
                                             49 COMRAM    15    13      2
                            ___awmod
                             ___wmul
                         _clear_cube
                         _draw_plane
                          _set_plane
 ---------------------------------------------------------------------------------
 (1) _scan                                                32    30      2   11145
                                             49 COMRAM    32    30      2
                             ___wmul
                         _clear_cube
                        _clear_plane
                         _draw_plane
                           _plane_on
                          _set_plane
 ---------------------------------------------------------------------------------
 (1) _random_pattern                                      18    16      2   18883
                                             49 COMRAM    18    16      2
                            ___awmod
                        _clear_plane
                            _lighton
                               _move
                               _rand
                              _srand
                               _time
 ---------------------------------------------------------------------------------
 (2) _rand                                                 6     4      2     370
                                             17 COMRAM     6     4      2
                             ___lmul
 ---------------------------------------------------------------------------------
 (3) ___lmul                                              12     4      8     370
                                              5 COMRAM    12     4      8
 ---------------------------------------------------------------------------------
 (2) _move                                                 4     0      4    3594
                                             29 COMRAM     4     0      4
                            ___awmod
 ---------------------------------------------------------------------------------
 (1) _rainfall                                            11     9      2    8064
                                             49 COMRAM    11     9      2
                         _clear_cube
                        _clear_plane
                         _draw_plane
                          _set_plane
 ---------------------------------------------------------------------------------
 (2) _clear_plane                                          6     6      0    2727
                                             43 COMRAM     6     6      0
                             ___wmul
                         _draw_plane
 ---------------------------------------------------------------------------------
 (1) _pulsing                                             12    10      2    6536
                                             49 COMRAM    12    10      2
                             ___wmul
                         _clear_cube
                         _draw_plane
                           _plane_on
 ---------------------------------------------------------------------------------
 (1) _init                                                 0     0      0       0
 ---------------------------------------------------------------------------------
 (1) _cubeidle                                            12    10      2   11718
                                             49 COMRAM    12    10      2
                         _clear_cube
                            _lighton
                              _srand
                               _time
 ---------------------------------------------------------------------------------
 (2) _time                                                 8     0      8     196
                                              5 COMRAM     8     0      8
 ---------------------------------------------------------------------------------
 (2) _srand                                                4     2      2     174
                                             13 COMRAM     4     2      2
                               _time (ARG)
 ---------------------------------------------------------------------------------
 (2) _lighton                                              6     2      4    8455
                                             43 COMRAM     6     2      4
                            ___awdiv
                            ___awmod
                             ___wmul
                         _draw_plane
                          _set_plane
 ---------------------------------------------------------------------------------
 (2) _set_plane                                            2     0      2    1336
                                             37 COMRAM     2     0      2
                            ___awdiv (ARG)
                           _plane_on
 ---------------------------------------------------------------------------------
 (3) _plane_on                                             4     2      2     782
                                              5 COMRAM     4     2      2
 ---------------------------------------------------------------------------------
 (2) _draw_plane                                           0     0      0       0
 ---------------------------------------------------------------------------------
 (2) ___awmod                                              6     2      4    2728
                                             23 COMRAM     6     2      4
                               _rand (ARG)
 ---------------------------------------------------------------------------------
 (3) ___awdiv                                              8     4      4     756
                                             29 COMRAM     8     4      4
                            ___awmod (ARG)
 ---------------------------------------------------------------------------------
 (2) _clear_cube                                           6     6      0    2727
                                             43 COMRAM     6     6      0
                             ___wmul
 ---------------------------------------------------------------------------------
 (3) ___wmul                                               6     2      4    2591
                                             37 COMRAM     6     2      4
                            ___awdiv (ARG)
                            ___awmod (ARG)
 ---------------------------------------------------------------------------------
 Estimated maximum stack depth 3
 ---------------------------------------------------------------------------------
 (Depth) Function   	        Calls       Base Space   Used Autos Params    Refs
 ---------------------------------------------------------------------------------
 (5) _H_ISR                                                5     5      0      30
                                              0 COMRAM     5     5      0
 ---------------------------------------------------------------------------------
 Estimated maximum stack depth 5
 ---------------------------------------------------------------------------------

 Call Graph Graphs:

 _main (ROOT)
   _clear_cube
     ___wmul
       ___awdiv (ARG)
         ___awmod (ARG)
           _rand (ARG)
             ___lmul
       ___awmod (ARG)
   _cubeidle
     _clear_cube
     _lighton
       ___awdiv
       ___awmod
       ___wmul
       _draw_plane
       _set_plane
         ___awdiv (ARG)
         _plane_on (ARG)
     _srand
       _time (ARG)
     _time
   _init
   _pulsing
     ___wmul
     _clear_cube
     _draw_plane
     _plane_on
   _rainfall
     _clear_cube
     _clear_plane
       ___wmul
       _draw_plane
     _draw_plane
     _set_plane
   _random_pattern
     ___awmod
     _clear_plane
     _lighton
     _move
       ___awmod
     _rand
     _srand
     _time
   _scan
     ___wmul
     _clear_cube
     _clear_plane
     _draw_plane
     _plane_on
     _set_plane
   _speedup
     ___awmod
     ___wmul
     _clear_cube
     _draw_plane
     _set_plane

 _H_ISR (ROOT)

 Address spaces:
Name               Size   Autos  Total    Cost      Usage
BIGRAM             5F3      0       0      26        0.0%
EEDATA             100      0       0       0        0.0%
BITBANK4           100      0       0      11        0.0%
BANK4              100      0       0      12        0.0%
BITBANK3           100      0       0       9        0.0%
BANK3              100      0       0      10        0.0%
BITBANK2           100      0       0       7        0.0%
BANK2              100      0       0       8        0.0%
BITBANK1           100      0       0       5        0.0%
BANK1              100      0       0       6        0.0%
BITBANK5            F4      0       0      13        0.0%
BANK5               F4      0       0      14        0.0%
BITBANK0            80      0       0       3        0.0%
BANK0               80      0      32       4       39.1%
BITCOMRAM           7E      0       0       0        0.0%
COMRAM              7E     53      59       1       70.6%
BITBIGSFR_1l        21      0       0      21        0.0%
BITBIGSFR_1hh        E      0       0      20        0.0%
BITBIGSFR_5h         A      0       0      15        0.0%
BITBIGSFRll          9      0       0      24        0.0%
BITBIGSFR_2          6      0       0      19        0.0%
BITBIGSFRh           5      0       0      22        0.0%
BITBIGSFRlhh         4      0       0      23        0.0%
BITBIGSFR_4          3      0       0      17        0.0%
BITBIGSFR_3          3      0       0      18        0.0%
BITBIGSFR_5l         2      0       0      16        0.0%
BIGSFR_5             0      0       0     200        0.0%
BIGSFR_4             0      0       0     200        0.0%
BIGSFR_3             0      0       0     200        0.0%
BIGSFR_2             0      0       0     200        0.0%
BIGSFR_1             0      0       0     200        0.0%
BIGSFR               0      0       0     200        0.0%
BITSFR_5             0      0       0     200        0.0%
SFR_5                0      0       0     200        0.0%
BITSFR_4             0      0       0     200        0.0%
SFR_4                0      0       0     200        0.0%
BITSFR_3             0      0       0     200        0.0%
SFR_3                0      0       0     200        0.0%
BITSFR_2             0      0       0     200        0.0%
SFR_2                0      0       0     200        0.0%
BITSFR_1             0      0       0     200        0.0%
SFR_1                0      0       0     200        0.0%
BITSFR               0      0       0     200        0.0%
SFR                  0      0       0     200        0.0%
STACK                0      0       0       2        0.0%
NULL                 0      0       0       0        0.0%
ABS                  0      0      8B      25        0.0%
DATA                 0      0      8B      27        0.0%
CODE                 0      0       0       0        0.0%


Microchip Technology PIC18 Macro Assembler V2.40 build 20220703182018 
Symbol Table                                                                                   Thu Jan 12 06:54:52 2023

                     l62 17FC                       l80 1DFE                       l73 1D84  
                     l90 1CEE                       l75 1D8C                       l83 2046  
                     l59 1F28                       l76 1D94                       l77 1D9C  
                     l93 18A8                       l69 1D7E                       l78 1DA4  
                     l94 1922                       l79 1DAC             ___awdiv@sign 0023  
    ___wmul@multiplicand 0028             speedup@j_747 003F             speedup@j_748 0035  
        random_pattern@r 0042          random_pattern@x 0040                      l132 16CE  
                    l136 109E                      l304 0EF2                      l313 0FDC  
                    l324 1A14                      l158 1260                      l175 015A  
                    l610 1C44                      l338 14AE                      l259 08D0  
                    l291 0CF8                      l366 2014                      l377 1EC4  
                    l378 1ED4                      l597 1AD8             ___awmod@sign 001D  
                    wreg 000FE8         random_pattern@id 0032                     l1042 202E  
                   l1301 1EEE                     l1045 1E6A                     l2111 1BB4  
                   l2103 1B96                     l2031 1DBA                     l1311 1F1C  
                   l1303 1EF0                     l2121 1BEC                     l2113 1BC2  
                   l2105 1B9A                     l2041 203A                     l2201 191E  
                   l1049 1FC8                     l1321 1F26                     l1313 1F1E  
                   l1305 1EF2                     l2043 1FF0                     l2123 1BFA  
                   l2131 1C24                     l2115 1BCA                     l2107 1BA8  
                   l2027 1D80                     l1315 1F20                     l1307 1EFC  
                   l2211 150A                     l2203 14B0                     l2051 1E7C  
                   l2045 200C                     l2061 1A1A                     l2133 1C34  
                   l2125 1C10                     l2117 1BDC                     l2109 1BB0  
                   l2037 16D0                     l1317 1F22                     l1309 1F1A  
                   l2221 1576                     l2213 151C                     l2205 14C2  
                   l2053 1E8A                     l2301 110E                     l2071 1A4A  
                   l2063 1A28                     l2135 1C3C                     l2127 1C18  
                   l2119 1BE4                     l2039 2030                     l1319 1F24  
                   l2151 1D00                     l2231 160A                     l2223 15A6  
                   l2215 1542                     l2207 14EA                     l2055 1E9A  
                   l2311 11A0                     l2303 1130   __end_of_random_pattern 1262  
                   l2081 1A78                     l2073 1A4E                     l2065 1A30  
                   l2129 1C1E                     l2161 1D7A                     l2153 1D3A  
                   l2145 1CF8                     l2401 032C                     l2241 166A  
                   l2233 161A                     l2225 15B6                     l2217 1552  
                   l2209 14FA                     l2057 1EA4                     l2049 1E6C  
                   l2321 1228                     l2313 11B4                     l2305 1144  
                   l2171 1C60                     l2163 1C46                     l2091 1AAC  
                   l2083 1A86                     l2075 1A56                     l2067 1A34  
                   l2059 1A16                     l2155 1D3E                     l2139 1CF0  
                   l2411 03A4                     l2403 0340                     l2331 0016  
                   l2243 167A                     l2235 162A                     l2227 15C6  
                   l2219 1562                     l2251 16C6                     l2323 123C  
                   l2315 11CC                     l2307 115C                     l2173 1C62  
                   l2165 1C5A                     l2093 1AB2                     l2085 1A8C  
                   l2077 1A68                     l2069 1A42                     l2157 1D5A  
                   l2501 078C                     l2421 0418                     l2413 03B6  
                   l2405 0356                     l2341 003E                     l2333 001E  
                   l2245 168E                     l2237 163E                     l2229 15DA  
                   l2317 11EC                     l2309 117C                     l2191 1CCE  
                   l2167 1C5C                     l2087 1AA2                     l2079 1A70  
                   l2095 1AB8                     l2263 2016                     l2255 1F7E  
                   l1295 1ED6                     l2159 1D5E                     l2511 07F2  
                   l2503 07B2                     l2423 0446                     l2415 03DC  
                   l2431 04AA                     l2407 036A                     l2351 009E  
                   l2343 0042                     l2335 0026                     l2247 16AA  
                   l2239 165A                     l2319 120C                     l2327 1248  
                   l2271 0FDE                     l2193 1CD2                     l2185 1C74  
                   l2169 1C5E                     l2097 1AC8                     l2089 1AAA  
                   l2257 1F90                     l1297 1EEA                     l2521 085E  
                   l2513 0806                     l2505 07C4                     l2441 04EA  
                   l2433 04BE                     l2425 045A                     l2417 03EE  
                   l2409 0390                     l2361 0120                     l2353 00B4  
                   l2345 0054                     l2337 002E                     l2329 0012  
                   l2249 16BA                     l2265 1E00                     l2281 1022  
                   l2273 0FE2                     l2601 0A10                     l2187 1CAE  
                   l2179 1C6C                     l2099 1AD0                     l2195 17FE  
                   l2259 1FB8                     l1299 1EEC                     l2531 0886  
                   l2523 0862                     l2515 081C                     l2507 07DA  
                   l2427 0470                     l2419 0404                     l2371 01A8  
                   l2363 0134                     l2355 00C8                     l2347 0066  
                   l2339 003A                     l2267 1E3C                     l2291 108C  
                   l2283 1034                     l2275 101A                     l2611 0A38  
                   l2603 0A14                     l2189 1CB2                     l2197 181E  
                   l2533 08A4                     l2525 0866                     l2517 0830  
                   l2461 0590                     l2445 0502                     l2437 04D4  
                   l2453 0532                     l2429 0484                     l2381 0226  
                   l2373 01BA                     l2357 00F6                     l2349 008C  
                   l2365 015E                     l2293 10A6                     l2285 1054  
                   l2277 1022                     l2621 0A7E                     l2613 0A3C  
                   l2605 0A30                     l2541 08D2                     l2199 1832  
                   l2535 08A8                     l2527 087A                     l2471 0612  
                   l2463 05A6                     l2455 0546                     l2391 029C  
                   l2383 023C                     l2375 01D0                     l2367 0170  
                   l2359 010A                     l2519 0852                     l2295 10C6  
                   l2287 105C                     l2279 1022                     l2711 0CC8  
                   l2703 0C72                     l2631 0AB6                     l2623 0A82  
                   l2543 08DA                     l2537 08B0                     l2529 0882  
                   l2481 0698                     l2473 0626                     l2465 05BA  
                   l2457 0558                     l2449 051A                     l2393 02C2  
                   l2385 0250                     l2377 01E4                     l2369 0182  
                   l2297 10D8                     l2289 1078                     l2713 0CD8  
                   l2705 0CBC                     l2641 0ADE                     l2633 0AD2  
                   l2625 0A9E                     l2561 0944                     l2801 0FC4  
                   l2721 0CFE                     l2811 1982                     l2803 1924  
                   l2491 0716                     l2483 06AA                     l2467 05E8  
                   l2459 057E                     l2475 064C                     l2395 02D4  
                   l2379 0212                     l2387 0276                     l2539 08B8  
                   l2299 10EE                     l2651 0B2C                     l2627 0AA2  
                   l2619 0A44                     l2571 096C                     l2563 0948  
                   l2555 08EA                     l2731 0D28                     l2723 0D06  
                   l2821 19DA                     l2813 199A                     l2805 195C  
                   l2901 1442                     l2493 072C                     l2485 06C0  
                   l2477 0660                     l2469 05FC                     l2397 02EA  
                   l2389 028A                     l2709 0CC4                     l2661 0B7C  
                   l2653 0B48                     l2629 0AB2                     l2573 0978  
                   l2565 0964                     l2557 0924                     l2549 08E2  
                   l2717 0CE0                     l2733 0D30                     l2725 0D0E  
                   l2823 19EE                     l2815 19A8                     l2807 1960  
                   l2903 145E                     l2831 126A                     l2495 0740  
                   l2487 06D4                     l2479 0672                     l2399 02FE  
                   l2655 0B4C                     l2647 0AE6                     l2639 0ADA  
                   l2591 09E0                     l2575 097C                     l2559 0928  
                   l2751 0DEE                     l2735 0D3C                     l2727 0D16  
                   l2719 0CFA                     l2817 19AC                     l2809 1976  
                   l2825 19FC                     l2905 1482                     l2833 1274  
                   l2489 0702                     l2497 0766                     l2681 0BEA  
                   l2657 0B5C                     l2649 0B28                     l2593 09FC  
                   l2585 09B4                     l2577 0990                     l2761 0E1A  
                   l2753 0DF2                     l2745 0D6A                     l2737 0D4E  
                   l2729 0D20                     l2819 19C8                     l2907 1486  
                   l2851 12F0                     l2835 1278                     l2827 1262  
                   l2499 077A                     l2691 0C26                     l2683 0BEE  
                   l2675 0B90                     l2667 0B84                     l2659 0B60  
                   l2587 09C8                     l2579 09AC                     l2763 0E6A  
                   l2771 0EBE                     l2747 0DBA                     l2755 0E12  
                   l2739 0D62                     l2861 132E                     l2853 1302  
                   l2845 129C                     l2837 1284                     l2829 1266  
                   l2909 1496                     l2685 0BFE                     l2677 0BCA  
                   l2669 0B88                     l2589 09CC                     l2781 0EEE  
                   l2773 0ECA                     l2765 0E84                     l2749 0DD4  
                   l2941 1B12                     l2933 1ADA                     l2855 1306  
                   l2847 12D0                     l2839 1294                     l2695 0C46  
                   l2687 0C02                     l2679 0BCE                     l2599 0A04  
                   l2791 0F54                     l2783 0F10                     l2775 0ECE  
                   l2767 0E9E                     l2943 1B22                     l2935 1AE2  
                   l2951 1B46                     l2881 139C                     l2873 133E  
                   l2857 1312                     l2849 12D4                     l2697 0C4A  
                   l2689 0C1E                     l2793 0F6E                     l2785 0F28  
                   l2777 0EDA                     l2769 0EA2                     l2945 1B32  
                   l2937 1AF2                     l2891 13E8                     l2883 13B8  
                   l2875 1378                     l2867 1336                     l2859 131E  
                   l2699 0C52                     l2795 0F82                     l2787 0F2C  
                   l2779 0EE6                     l2947 1B42                     l2939 1B02  
                   l2885 13D0                     l2877 137C                     l2797 0F88  
                   l2789 0F48                     l2887 13D4                     l2879 1398  
                   l2799 0FA4                     l2897 13F0                     l2889 13E4  
                   l2899 143E                     l2997 1B5C                     l2999 1DD0  
                   u2000 151C                     u2001 1518                     u2010 1542  
                   u2011 153E                     u2100 1F90                     u2020 1576  
                   u2101 1F8C                     u2021 1572                     u2030 15A6  
                   u2110 1E5C                     u2031 15A2                     u3000 12F0  
                   u2040 15DA                     u2200 120C                     u2120 10D8  
                   u3001 12EC                     u2041 15D6                     u2201 1208  
                   u2121 10D4                     u3010 1398                     u2050 160A  
                   u2210 1260                     u2130 10EA                     u3011 1394  
                   u2051 1606                     u2115 1E52                     u2211 125C  
                   u2131 10E6                     u3020 13B8                     u2300 01BA  
                   u2220 0054                     u2060 163E                     u2140 112C  
                   u3021 13B4                     u2301 01B6                     u2221 0050  
                   u2061 163A                     u2141 1128                     u3030 145E  
                   u2310 01E4                     u2230 0066                     u2070 165A  
                   u2150 1144                     u3031 145A                     u2311 01E0  
                   u2231 0062                     u2071 1656                     u2151 1140  
                   u3040 14AE                     u2400 03A4                     u2320 0226  
                   u2240 009E                     u2080 168E                     u2160 1158  
                   u3041 14AA                     u2401 03A0                     u2321 0222  
                   u2241 009A                     u2081 168A                     u2161 1154  
                   u2410 03B6                     u2330 0250                     u2250 00C8  
                   u2090 16AA                     u2170 119C                     u2411 03B2  
                   u2331 024C                     u2251 00C4                     u2091 16A6  
                   u2171 1198                     u3107 0B52                     u2500 0516  
                   u2420 03EE                     u2340 028A                     u2260 010A  
                   u2180 11B4                     u1605 1722                     u2501 0512  
                   u2421 03EA                     u2341 0286                     u2261 0106  
                   u2181 11B0                     u3117 0BF4                     u1606 1724  
                   u2510 052E                     u2430 0418                     u2350 029C  
                   u2270 0134                     u2190 11C8                     u1615 172E  
                   u2511 052A                     u2431 0414                     u2351 0298  
                   u2271 0130                     u2191 11C4                     u3127 0CCE  
                   u1616 1730                     u2600 06AA                     u2520 0546  
                   u2440 045A                     u2360 02D4                     u2280 0170  
                   u1800 1EC4                     u1705 179A                     u1625 173A  
                   u1545 16DA                     u2601 06A6                     u2521 0542  
                   u2441 0456                     u2361 02D0                     u2281 016C  
                   u1801 1EC0                     u3137 1092                     u1810 1A28  
                   u1706 179C                     u1626 173C                     u1546 16DC  
                   u2610 06D4                     u2530 0558                     u2450 0484  
                   u2370 02FE                     u2290 0182                     u1811 1A24  
                   u1715 17A6                     u1635 1746                     u1555 16E6  
                   u3147 128A                     u2611 06D0                     u2531 0554  
                   u2451 0480                     u2371 02FA                     u2291 017E  
                   u3067 0EE8                     u1820 1A42                     u1900 1BFA  
                   u1716 17A8                     u1636 1748                     u1556 16E8  
                   u2700 087A                     u2620 0716                     u2540 0590  
                   u2460 04BE                     u2380 0340                     u1821 1A3E  
                   u1901 1BF6                     u1725 17B2                     u1645 1752  
                   u1565 16F2                     u3157 1324                     u2701 0876  
                   u2621 0712                     u2541 058C                     u2461 04BA  
                   u2381 033C                     u3077 0982                     u1830 1A68  
                   u1910 1C10                     u1726 17B4                     u1646 1754  
                   u1566 16F4                     u2710 08A4                     u2630 0740  
                   u2550 05BA                     u2470 04D0                     u2390 036A  
                   u1831 1A64                     u1911 1C0C                     u1735 17BE  
                   u1655 175E                     u1575 16FE                     u3167 13DA  
                   u2711 08A0                     u2631 073C                     u2551 05B6  
                   u2471 04CC                     u2391 0366                     u3087 09D2  
                   u1840 1A86                     u1920 1C34                     u1736 17C0  
                   u1656 1760                     u1576 1700                     u2720 08D0  
                   u2640 077A                     u2560 05FC                     u2480 04E6  
                   u2800 0B48                     u1841 1A82                     u1921 1C30  
                   u1745 17CA                     u1665 176A                     u1585 170A  
                   u3177 148C                     u2721 08CC                     u2641 0776  
                   u2561 05F8                     u2481 04E2                     u2801 0B44  
                   u3097 0AA8                     u1850 1AA2                     u1746 17CC  
                   u1666 176C                     u1586 170C                     u1930 1D5A  
                   u2650 078C                     u2570 0626                     u2490 04FE  
                   u2810 0B7C                     u2730 0944                     u1851 1A9E  
                   u1755 17D6                     u1675 1776                     u1595 1716  
                   u3187 19A0                     u1931 1D56                     u2651 0788  
                   u2571 0622                     u2491 04FA                     u2811 0B78  
                   u2731 0940                     u1860 1AC8                     u1756 17D8  
                   u1676 1778                     u1596 1718                     u1940 1D7A  
                   u2660 07C4                     u2580 0660                     u2820 0BEA  
                   u2740 0964                     u2900 0EBE                     u1861 1AC4  
                   u1765 17E2                     u1685 1782                     u3197 19F4  
                   u1941 1D76                     u2661 07C0                     u2581 065C  
                   u2821 0BE6                     u2741 0960                     u2901 0EBA  
                   u1950 1CCE                     u1870 1BA8                     u1766 17E4  
                   u1686 1784                     u2670 07EE                     u2590 0672  
                   u1790 1E8A                     u2830 0C1E                     u2750 09AC  
                   u2910 0F10                     u1951 1CCA                     u1871 1BA4  
                   u1775 17EE                     u1695 178E                     u2671 07EA  
                   u2591 066E                     u1791 1E86                     u2831 0C1A  
                   u2751 09A8                     u2911 0F0C                     u1960 1CEE  
                   u1880 1BC2                     u1776 17F0                     u1696 1790  
                   u2680 0806                     u2840 0C42                     u2760 09FC  
                   u2920 0F28                     u1961 1CEA                     u1881 1BBE  
                   u1785 17FA                     u2681 0802                     u2841 0C3E  
                   u2761 09F8                     u2921 0F24                     u1890 1BDC  
                   u1786 17FC                     u1970 1832                     u2690 0830  
                   u2850 0C6E                     u2770 0A30                     u2930 0F48  
                   u1891 1BD8                     u1971 182E                     u2691 082C  
                   u2851 0C6A                     u2771 0A2C                     u2931 0F44  
                   u1980 14C2                     u2860 0CF8                     u2780 0A9E  
                   u2940 0F6E                     u1981 14BE                     u2861 0CF4  
                   u2781 0A9A                     u2941 0F6A                     u1990 14EA  
                   u2790 0AD2                     u2950 0F82                     u2870 0D4E  
                   u1991 14E6                     u2791 0ACE                     u2951 0F7E  
                   u2871 0D4A                     u2960 0FDC                     u2880 0D62  
                   u2961 0FD8                     u2881 0D5E                     u2970 19C8  
                   u2890 0E0E                     u2971 19C4                     u2891 0E0A  
                   u2980 19DA                     u2981 19D6                     u2990 1A14  
                   u2991 1A10                     _main 1ADA                     _init 1ED6  
                   _mode 0054                     _rand 1E00                     _scan 08D2  
                   _seed 0056                     _move 14B0                     _time 1F7E  
                   fsr2h 000FDA                     fsr2l 000FD9                     btemp 005A  
                   prodh 000FF4                     prodl 000FF3                     start 000E  
           ___param_bank 000000                    ?_main 0001                    ?_init 0001  
                  ?_scan 0032                    ?_rand 0012          __end_of___awdiv 1ADA  
                  ?_move 001E          __end_of___awmod 1C46                    ?_time 0006  
        ___awdiv@divisor 0020                    i2l362 1F6C                    i2l363 1F7A  
        ___awdiv@counter 0022                    _H_ISR 0008                    _TRISA 000F92  
                  _TRISB 000F93                    _TRISC 000F94                    _TRISD 000F95  
                  _TRISE 000F96      ___lmul@multiplicand 000A          __end_of_lighton 1924  
                  _plane 0080                    _srand 2016          ?_random_pattern 0032  
                  scan@i 0038                    scan@j 003A                    move@r 0020  
                  move@x 001E                    time@t 0006          __end_of_speedup 0FDE  
                  ttemp5 005B                    ttemp6 005E                    ttemp7 0062  
        __end_of_pulsing 14B0                    status 000FD8                    wtemp8 005B  
          rainfall@itcnt 0037          __initialization 1FCA             __end_of_main 1B96  
           __end_of_init 1F2A             __end_of_rand 1E6C             __end_of_scan 0CFA  
           __end_of_move 16D0             __end_of_time 1FCA                   ??_main 0052  
                 ??_init 0006                   ??_scan 0034                   ??_rand 0014  
                 ??_move 0022                   ??_time 000E            __activetblptr 000002  
                 ?_H_ISR 0001                   _ADCON1 000FC1                   _ADRESH 000FC4  
                 _ADRESL 000FC3         ___awdiv@dividend 001E                   ?_srand 000E  
                 i2l2011 1F3E                   i2l2013 1F46                   i2l2015 1F4E  
                 i2l2017 1F50                   i2l2009 1F2C         __end_of_cubeidle 1A16  
                 ___lmul 1E6C                   ___wmul 1FF0                ??___awdiv 0022  
              ??___awmod 001C              lighton@prev 002E             pulsing@i_755 0036  
           pulsing@i_757 003C                   clear_0 1FD0         ___awdiv@quotient 0024  
        ___awmod@divisor 001A                   isa$std 000001         __end_of_rainfall 08D2  
        ___awmod@counter 001C         __end_of_plane_on 1E00                   scan@id 0032  
              ??_lighton 0030                   tblptru 000FF8                   srand@s 000E  
              ??_speedup 0034                ??_pulsing 0034               __accesstop 0080  
__end_of__initialization 1FE2      random_pattern@prevr 003C      random_pattern@prevx 003E  
          ___rparam_used 000001            __end_of_H_ISR 1F7E           __pcstackCOMRAM 0001  
          __end_of_srand 2030              rainfall@cnt 003B                  ??_H_ISR 0001  
                ??_srand 0010               __pbssBANK0 0080               _clear_cube 1C46  
                ?___lmul 0006                  ?___wmul 0026           ___lmul@product 000E  
       ??_random_pattern 0034                ?_cubeidle 0032               _draw_plane 16D0  
              ?_rainfall 0032                ?_plane_on 0006                  __Hparam 0000  
                __Lparam 0000                  ___awdiv 1A16                  ___awmod 1B96  
                __pcinit 1FCA                  __ramtop 0600                  __ptext0 1ADA  
                __ptext1 0CFA                  __ptext2 08D2                  __ptext3 0FDE  
                __ptext4 1E00                  __ptext5 1E6C                  __ptext6 14B0  
                __ptext7 0012                  __ptext8 1CF0                  __ptext9 1262  
                _lighton 17FE         ___awmod@dividend 0018                  _speedup 0CFA  
                _pulsing 1262               ??_cubeidle 0034           __pintcode_body 1F2A  
   end_of_initialization 1FE2            __Lmediumconst 0000                  int_func 1F2A  
      __end_of_set_plane 2048               ??_rainfall 0034               ??_plane_on 0008  
          ??_clear_plane 002C              ?_clear_cube 0001                  postdec2 000FDD  
                postinc0 000FEE                  postinc2 000FDE                _TRISAbits 000F92  
              _TRISCbits 000F94                _TRISEbits 000F96              ?_draw_plane 0001  
            speedup@dcnt 0037               cubeidle@id 0032           __end_of___lmul 1ED6  
         __end_of___wmul 2016      __end_of_clear_plane 1D80      start_initialization 1FCA  
               ??___lmul 000E                 ??___wmul 002A              __pbssCOMRAM 0054  
             rainfall@id 0032               rainfall@it 0035              _clear_plane 1CF0  
              __pintcode 0008                 ?___awdiv 001E                 ?___awmod 0018  
             H_ISR@value 0003                 ?_lighton 002C                 ?_speedup 0032  
               ?_pulsing 0032           ___wmul@product 002A                 _LATAbits 000F89  
               _LATBbits 000F8A                 _LATCbits 000F8B               set_plane@a 0026  
               _LATDbits 000F8C                 _LATEbits 000F8D                 _PIE1bits 000F9D  
           ??_clear_cube 002C                 i2u153_40 1F6C                 i2u153_41 1F68  
               _PIR1bits 000F9E                _set_plane 2030               _ADCON0bits 000FC2  
             _ADCON2bits 000FC0        ___wmul@multiplier 0026               speedup@del 0039  
              cubeidle@i 003C       __end_of_clear_cube 1CF0             ??_draw_plane 0006  
      ___lmul@multiplier 0006                scan@i_730 003C                scan@i_731 003E  
              scan@i_732 0040                scan@i_733 0042                scan@i_735 0046  
              scan@i_737 004A                scan@i_739 004E                 __Hrparam 0000  
              scan@j_740 0050                scan@j_734 0044                scan@j_736 0048  
              scan@j_738 004C                 __Lrparam 0000               ?_set_plane 0026  
           clear_plane@i 002E             clear_plane@j 0030       __end_of_draw_plane 17FE  
              rainfall@x 0039                plane_on@a 0006                 __ptext10 1ED6  
               __ptext11 1924                 __ptext20 1C46                 __ptext12 1F7E  
               __ptext21 1FF0                 __ptext13 2016                 __ptext14 17FE  
               __ptext15 2030                 __ptext16 1D80                 __ptext17 16D0  
               __ptext18 1B96                 __ptext19 1A16                 _cubeidle 1924  
               _rainfall 0012                 _plane_on 1D80                 isa$xinst 000000  
               int$flags 005A                speedup@id 0032               _INTCONbits 000FF2  
            clear_cube@i 002E              clear_cube@j 0030                 lighton@x 002C  
              pulsing@id 0032                 intlevel2 0000               _OSCCONbits 000FD3  
           ?_clear_plane 0001           H_ISR@mapResult 0005              ??_set_plane 0028  
               speedup@i 003B                 speedup@j 003D                 pulsing@i 003A  
               pulsing@j 0038           _random_pattern 0FDE  
